
SAMSEPIOMOD.elf:     file format elf32-littlearm

Sections:
Idx Name          Size      VMA       LMA       File off  Algn
  0 .text         00003398  00400000  00400000  00010000  2**2
                  CONTENTS, ALLOC, LOAD, READONLY, CODE
  1 .ARM.exidx    00000008  00403398  00403398  00013398  2**2
                  CONTENTS, ALLOC, LOAD, READONLY, DATA
  2 .relocate     00000438  20000000  004033a0  00020000  2**3
                  CONTENTS, ALLOC, LOAD, CODE
  3 .bss          000000f4  20000438  004037d8  00020438  2**2
                  ALLOC
  4 .stack        00003004  2000052c  004038cc  00020438  2**0
                  ALLOC
  5 .ARM.attributes 0000002a  00000000  00000000  00020438  2**0
                  CONTENTS, READONLY
  6 .comment      00000059  00000000  00000000  00020462  2**0
                  CONTENTS, READONLY
  7 .debug_info   000089b3  00000000  00000000  000204bb  2**0
                  CONTENTS, READONLY, DEBUGGING
  8 .debug_abbrev 0000173b  00000000  00000000  00028e6e  2**0
                  CONTENTS, READONLY, DEBUGGING
  9 .debug_loc    00005b66  00000000  00000000  0002a5a9  2**0
                  CONTENTS, READONLY, DEBUGGING
 10 .debug_aranges 00000a18  00000000  00000000  0003010f  2**0
                  CONTENTS, READONLY, DEBUGGING
 11 .debug_ranges 00000928  00000000  00000000  00030b27  2**0
                  CONTENTS, READONLY, DEBUGGING
 12 .debug_macro  00012b14  00000000  00000000  0003144f  2**0
                  CONTENTS, READONLY, DEBUGGING
 13 .debug_line   0000beac  00000000  00000000  00043f63  2**0
                  CONTENTS, READONLY, DEBUGGING
 14 .debug_str    0004bc3b  00000000  00000000  0004fe0f  2**0
                  CONTENTS, READONLY, DEBUGGING
 15 .debug_frame  00002b60  00000000  00000000  0009ba4c  2**2
                  CONTENTS, READONLY, DEBUGGING

Disassembly of section .text:

00400000 <_sfixed>:
  400000:	20003530 	.word	0x20003530
  400004:	00401f49 	.word	0x00401f49
  400008:	00402011 	.word	0x00402011
  40000c:	00402011 	.word	0x00402011
  400010:	00402011 	.word	0x00402011
  400014:	00402011 	.word	0x00402011
  400018:	00402011 	.word	0x00402011
	...
  40002c:	00402011 	.word	0x00402011
  400030:	00402011 	.word	0x00402011
  400034:	00000000 	.word	0x00000000
  400038:	00402011 	.word	0x00402011
  40003c:	00402011 	.word	0x00402011
  400040:	00402011 	.word	0x00402011
  400044:	00402011 	.word	0x00402011
  400048:	00402011 	.word	0x00402011
  40004c:	00402011 	.word	0x00402011
  400050:	00402011 	.word	0x00402011
  400054:	00402011 	.word	0x00402011
  400058:	00402011 	.word	0x00402011
  40005c:	00000000 	.word	0x00000000
  400060:	00402011 	.word	0x00402011
  400064:	00402011 	.word	0x00402011
  400068:	00000000 	.word	0x00000000
  40006c:	00401111 	.word	0x00401111
  400070:	00401129 	.word	0x00401129
  400074:	00000000 	.word	0x00000000
  400078:	00402011 	.word	0x00402011
  40007c:	00400f29 	.word	0x00400f29
	...
  400088:	00402011 	.word	0x00402011
  40008c:	00402011 	.word	0x00402011
  400090:	00402011 	.word	0x00402011
  400094:	00402011 	.word	0x00402011
  400098:	00402011 	.word	0x00402011
  40009c:	00402011 	.word	0x00402011
  4000a0:	00402011 	.word	0x00402011
  4000a4:	00402011 	.word	0x00402011
	...
  4000b4:	00402011 	.word	0x00402011
  4000b8:	00402011 	.word	0x00402011
  4000bc:	00402011 	.word	0x00402011
  4000c0:	00402011 	.word	0x00402011
  4000c4:	00402011 	.word	0x00402011
  4000c8:	00402011 	.word	0x00402011

004000cc <__do_global_dtors_aux>:
  4000cc:	b510      	push	{r4, lr}
  4000ce:	4c05      	ldr	r4, [pc, #20]	; (4000e4 <__do_global_dtors_aux+0x18>)
  4000d0:	7823      	ldrb	r3, [r4, #0]
  4000d2:	b933      	cbnz	r3, 4000e2 <__do_global_dtors_aux+0x16>
  4000d4:	4b04      	ldr	r3, [pc, #16]	; (4000e8 <__do_global_dtors_aux+0x1c>)
  4000d6:	b113      	cbz	r3, 4000de <__do_global_dtors_aux+0x12>
  4000d8:	4804      	ldr	r0, [pc, #16]	; (4000ec <__do_global_dtors_aux+0x20>)
  4000da:	f3af 8000 	nop.w
  4000de:	2301      	movs	r3, #1
  4000e0:	7023      	strb	r3, [r4, #0]
  4000e2:	bd10      	pop	{r4, pc}
  4000e4:	20000438 	.word	0x20000438
  4000e8:	00000000 	.word	0x00000000
  4000ec:	004033a0 	.word	0x004033a0

004000f0 <frame_dummy>:
  4000f0:	4b08      	ldr	r3, [pc, #32]	; (400114 <frame_dummy+0x24>)
  4000f2:	b510      	push	{r4, lr}
  4000f4:	b11b      	cbz	r3, 4000fe <frame_dummy+0xe>
  4000f6:	4908      	ldr	r1, [pc, #32]	; (400118 <frame_dummy+0x28>)
  4000f8:	4808      	ldr	r0, [pc, #32]	; (40011c <frame_dummy+0x2c>)
  4000fa:	f3af 8000 	nop.w
  4000fe:	4808      	ldr	r0, [pc, #32]	; (400120 <frame_dummy+0x30>)
  400100:	6803      	ldr	r3, [r0, #0]
  400102:	b903      	cbnz	r3, 400106 <frame_dummy+0x16>
  400104:	bd10      	pop	{r4, pc}
  400106:	4b07      	ldr	r3, [pc, #28]	; (400124 <frame_dummy+0x34>)
  400108:	2b00      	cmp	r3, #0
  40010a:	d0fb      	beq.n	400104 <frame_dummy+0x14>
  40010c:	e8bd 4010 	ldmia.w	sp!, {r4, lr}
  400110:	4718      	bx	r3
  400112:	bf00      	nop
  400114:	00000000 	.word	0x00000000
  400118:	2000043c 	.word	0x2000043c
  40011c:	004033a0 	.word	0x004033a0
  400120:	004033a0 	.word	0x004033a0
  400124:	00000000 	.word	0x00000000

00400128 <twi_enable_master_mode>:
 * \brief Enable TWI master mode.
 *
 * \param p_twi Pointer to a TWI instance.
 */
void twi_enable_master_mode(Twi *p_twi)
{
  400128:	b480      	push	{r7}
  40012a:	b083      	sub	sp, #12
  40012c:	af00      	add	r7, sp, #0
  40012e:	6078      	str	r0, [r7, #4]
	/* Set Master Disable bit and Slave Disable bit */
	p_twi->TWI_CR = TWI_CR_MSDIS;
  400130:	687b      	ldr	r3, [r7, #4]
  400132:	2208      	movs	r2, #8
  400134:	601a      	str	r2, [r3, #0]
	p_twi->TWI_CR = TWI_CR_SVDIS;
  400136:	687b      	ldr	r3, [r7, #4]
  400138:	2220      	movs	r2, #32
  40013a:	601a      	str	r2, [r3, #0]

	/* Set Master Enable bit */
	p_twi->TWI_CR = TWI_CR_MSEN;
  40013c:	687b      	ldr	r3, [r7, #4]
  40013e:	2204      	movs	r2, #4
  400140:	601a      	str	r2, [r3, #0]
}
  400142:	bf00      	nop
  400144:	370c      	adds	r7, #12
  400146:	46bd      	mov	sp, r7
  400148:	bc80      	pop	{r7}
  40014a:	4770      	bx	lr

0040014c <twi_master_init>:
 * \param p_opt Options for initializing the TWI module (see \ref twi_options_t).
 *
 * \return TWI_SUCCESS if initialization is complete, error code otherwise.
 */
uint32_t twi_master_init(Twi *p_twi, const twi_options_t *p_opt)
{
  40014c:	b580      	push	{r7, lr}
  40014e:	b084      	sub	sp, #16
  400150:	af00      	add	r7, sp, #0
  400152:	6078      	str	r0, [r7, #4]
  400154:	6039      	str	r1, [r7, #0]
	uint32_t status = TWI_SUCCESS;
  400156:	2300      	movs	r3, #0
  400158:	60fb      	str	r3, [r7, #12]

	/* Disable TWI interrupts */
	p_twi->TWI_IDR = ~0UL;
  40015a:	687b      	ldr	r3, [r7, #4]
  40015c:	f04f 32ff 	mov.w	r2, #4294967295
  400160:	629a      	str	r2, [r3, #40]	; 0x28

	/* Dummy read in status register */
	p_twi->TWI_SR;
  400162:	687b      	ldr	r3, [r7, #4]
  400164:	6a1b      	ldr	r3, [r3, #32]

	/* Reset TWI peripheral */
	twi_reset(p_twi);
  400166:	6878      	ldr	r0, [r7, #4]
  400168:	4b0e      	ldr	r3, [pc, #56]	; (4001a4 <twi_master_init+0x58>)
  40016a:	4798      	blx	r3

	twi_enable_master_mode(p_twi);
  40016c:	6878      	ldr	r0, [r7, #4]
  40016e:	4b0e      	ldr	r3, [pc, #56]	; (4001a8 <twi_master_init+0x5c>)
  400170:	4798      	blx	r3

	/* Select the speed */
	if (twi_set_speed(p_twi, p_opt->speed, p_opt->master_clk) == FAIL) {
  400172:	683b      	ldr	r3, [r7, #0]
  400174:	6859      	ldr	r1, [r3, #4]
  400176:	683b      	ldr	r3, [r7, #0]
  400178:	681b      	ldr	r3, [r3, #0]
  40017a:	461a      	mov	r2, r3
  40017c:	6878      	ldr	r0, [r7, #4]
  40017e:	4b0b      	ldr	r3, [pc, #44]	; (4001ac <twi_master_init+0x60>)
  400180:	4798      	blx	r3
  400182:	4603      	mov	r3, r0
  400184:	2b01      	cmp	r3, #1
  400186:	d101      	bne.n	40018c <twi_master_init+0x40>
		/* The desired speed setting is rejected */
		status = TWI_INVALID_ARGUMENT;
  400188:	2301      	movs	r3, #1
  40018a:	60fb      	str	r3, [r7, #12]
	}

	if (p_opt->smbus == 1) {
  40018c:	683b      	ldr	r3, [r7, #0]
  40018e:	7a5b      	ldrb	r3, [r3, #9]
  400190:	2b01      	cmp	r3, #1
  400192:	d102      	bne.n	40019a <twi_master_init+0x4e>
		p_twi->TWI_CR = TWI_CR_QUICK;
  400194:	687b      	ldr	r3, [r7, #4]
  400196:	2240      	movs	r2, #64	; 0x40
  400198:	601a      	str	r2, [r3, #0]
	}

	return status;
  40019a:	68fb      	ldr	r3, [r7, #12]
}
  40019c:	4618      	mov	r0, r3
  40019e:	3710      	adds	r7, #16
  4001a0:	46bd      	mov	sp, r7
  4001a2:	bd80      	pop	{r7, pc}
  4001a4:	004004e9 	.word	0x004004e9
  4001a8:	00400129 	.word	0x00400129
  4001ac:	004001b1 	.word	0x004001b1

004001b0 <twi_set_speed>:
 *
 * \retval PASS New speed setting is accepted.
 * \retval FAIL New speed setting is rejected.
 */
uint32_t twi_set_speed(Twi *p_twi, uint32_t ul_speed, uint32_t ul_mck)
{
  4001b0:	b480      	push	{r7}
  4001b2:	b089      	sub	sp, #36	; 0x24
  4001b4:	af00      	add	r7, sp, #0
  4001b6:	60f8      	str	r0, [r7, #12]
  4001b8:	60b9      	str	r1, [r7, #8]
  4001ba:	607a      	str	r2, [r7, #4]
	uint32_t ckdiv = 0;
  4001bc:	2300      	movs	r3, #0
  4001be:	61fb      	str	r3, [r7, #28]
	uint32_t c_lh_div;
	uint32_t cldiv, chdiv;

	if (ul_speed > I2C_FAST_MODE_SPEED) {
  4001c0:	68bb      	ldr	r3, [r7, #8]
  4001c2:	4a34      	ldr	r2, [pc, #208]	; (400294 <twi_set_speed+0xe4>)
  4001c4:	4293      	cmp	r3, r2
  4001c6:	d901      	bls.n	4001cc <twi_set_speed+0x1c>
		return FAIL;
  4001c8:	2301      	movs	r3, #1
  4001ca:	e05d      	b.n	400288 <twi_set_speed+0xd8>
	}

	/* Low level time not less than 1.3us of I2C Fast Mode. */
	if (ul_speed > LOW_LEVEL_TIME_LIMIT) {
  4001cc:	68bb      	ldr	r3, [r7, #8]
  4001ce:	4a32      	ldr	r2, [pc, #200]	; (400298 <twi_set_speed+0xe8>)
  4001d0:	4293      	cmp	r3, r2
  4001d2:	d937      	bls.n	400244 <twi_set_speed+0x94>
		/* Low level of time fixed for 1.3us. */
		cldiv = ul_mck / (LOW_LEVEL_TIME_LIMIT * TWI_CLK_DIVIDER) - TWI_CLK_CALC_ARGU;
  4001d4:	687b      	ldr	r3, [r7, #4]
  4001d6:	4a31      	ldr	r2, [pc, #196]	; (40029c <twi_set_speed+0xec>)
  4001d8:	fba2 2303 	umull	r2, r3, r2, r3
  4001dc:	0b9b      	lsrs	r3, r3, #14
  4001de:	3b04      	subs	r3, #4
  4001e0:	617b      	str	r3, [r7, #20]
		chdiv = ul_mck / ((ul_speed + (ul_speed - LOW_LEVEL_TIME_LIMIT)) * TWI_CLK_DIVIDER) - TWI_CLK_CALC_ARGU;
  4001e2:	68ba      	ldr	r2, [r7, #8]
  4001e4:	4b2e      	ldr	r3, [pc, #184]	; (4002a0 <twi_set_speed+0xf0>)
  4001e6:	4413      	add	r3, r2
  4001e8:	009b      	lsls	r3, r3, #2
  4001ea:	687a      	ldr	r2, [r7, #4]
  4001ec:	fbb2 f3f3 	udiv	r3, r2, r3
  4001f0:	3b04      	subs	r3, #4
  4001f2:	613b      	str	r3, [r7, #16]
		
		/* cldiv must fit in 8 bits, ckdiv must fit in 3 bits */
		while ((cldiv > TWI_CLK_DIV_MAX) && (ckdiv < TWI_CLK_DIV_MIN)) {
  4001f4:	e005      	b.n	400202 <twi_set_speed+0x52>
			/* Increase clock divider */
			ckdiv++;
  4001f6:	69fb      	ldr	r3, [r7, #28]
  4001f8:	3301      	adds	r3, #1
  4001fa:	61fb      	str	r3, [r7, #28]
			/* Divide cldiv value */
			cldiv /= TWI_CLK_DIVIDER;
  4001fc:	697b      	ldr	r3, [r7, #20]
  4001fe:	085b      	lsrs	r3, r3, #1
  400200:	617b      	str	r3, [r7, #20]
		/* Low level of time fixed for 1.3us. */
		cldiv = ul_mck / (LOW_LEVEL_TIME_LIMIT * TWI_CLK_DIVIDER) - TWI_CLK_CALC_ARGU;
		chdiv = ul_mck / ((ul_speed + (ul_speed - LOW_LEVEL_TIME_LIMIT)) * TWI_CLK_DIVIDER) - TWI_CLK_CALC_ARGU;
		
		/* cldiv must fit in 8 bits, ckdiv must fit in 3 bits */
		while ((cldiv > TWI_CLK_DIV_MAX) && (ckdiv < TWI_CLK_DIV_MIN)) {
  400202:	697b      	ldr	r3, [r7, #20]
  400204:	2bff      	cmp	r3, #255	; 0xff
  400206:	d909      	bls.n	40021c <twi_set_speed+0x6c>
  400208:	69fb      	ldr	r3, [r7, #28]
  40020a:	2b06      	cmp	r3, #6
  40020c:	d9f3      	bls.n	4001f6 <twi_set_speed+0x46>
			ckdiv++;
			/* Divide cldiv value */
			cldiv /= TWI_CLK_DIVIDER;
		}
		/* chdiv must fit in 8 bits, ckdiv must fit in 3 bits */
		while ((chdiv > TWI_CLK_DIV_MAX) && (ckdiv < TWI_CLK_DIV_MIN)) {
  40020e:	e005      	b.n	40021c <twi_set_speed+0x6c>
			/* Increase clock divider */
			ckdiv++;
  400210:	69fb      	ldr	r3, [r7, #28]
  400212:	3301      	adds	r3, #1
  400214:	61fb      	str	r3, [r7, #28]
			/* Divide cldiv value */
			chdiv /= TWI_CLK_DIVIDER;
  400216:	693b      	ldr	r3, [r7, #16]
  400218:	085b      	lsrs	r3, r3, #1
  40021a:	613b      	str	r3, [r7, #16]
			ckdiv++;
			/* Divide cldiv value */
			cldiv /= TWI_CLK_DIVIDER;
		}
		/* chdiv must fit in 8 bits, ckdiv must fit in 3 bits */
		while ((chdiv > TWI_CLK_DIV_MAX) && (ckdiv < TWI_CLK_DIV_MIN)) {
  40021c:	693b      	ldr	r3, [r7, #16]
  40021e:	2bff      	cmp	r3, #255	; 0xff
  400220:	d902      	bls.n	400228 <twi_set_speed+0x78>
  400222:	69fb      	ldr	r3, [r7, #28]
  400224:	2b06      	cmp	r3, #6
  400226:	d9f3      	bls.n	400210 <twi_set_speed+0x60>
			chdiv /= TWI_CLK_DIVIDER;
		}

		/* set clock waveform generator register */
		p_twi->TWI_CWGR =
				TWI_CWGR_CLDIV(cldiv) | TWI_CWGR_CHDIV(chdiv) |
  400228:	697b      	ldr	r3, [r7, #20]
  40022a:	b2da      	uxtb	r2, r3
  40022c:	693b      	ldr	r3, [r7, #16]
  40022e:	021b      	lsls	r3, r3, #8
  400230:	b29b      	uxth	r3, r3
  400232:	431a      	orrs	r2, r3
				TWI_CWGR_CKDIV(ckdiv);		
  400234:	69fb      	ldr	r3, [r7, #28]
  400236:	041b      	lsls	r3, r3, #16
  400238:	f403 23e0 	and.w	r3, r3, #458752	; 0x70000
			chdiv /= TWI_CLK_DIVIDER;
		}

		/* set clock waveform generator register */
		p_twi->TWI_CWGR =
				TWI_CWGR_CLDIV(cldiv) | TWI_CWGR_CHDIV(chdiv) |
  40023c:	431a      	orrs	r2, r3
			/* Divide cldiv value */
			chdiv /= TWI_CLK_DIVIDER;
		}

		/* set clock waveform generator register */
		p_twi->TWI_CWGR =
  40023e:	68fb      	ldr	r3, [r7, #12]
  400240:	611a      	str	r2, [r3, #16]
  400242:	e020      	b.n	400286 <twi_set_speed+0xd6>
				TWI_CWGR_CLDIV(cldiv) | TWI_CWGR_CHDIV(chdiv) |
				TWI_CWGR_CKDIV(ckdiv);		
	} else {
		c_lh_div = ul_mck / (ul_speed * TWI_CLK_DIVIDER) - TWI_CLK_CALC_ARGU;
  400244:	68bb      	ldr	r3, [r7, #8]
  400246:	005b      	lsls	r3, r3, #1
  400248:	687a      	ldr	r2, [r7, #4]
  40024a:	fbb2 f3f3 	udiv	r3, r2, r3
  40024e:	3b04      	subs	r3, #4
  400250:	61bb      	str	r3, [r7, #24]

		/* cldiv must fit in 8 bits, ckdiv must fit in 3 bits */
		while ((c_lh_div > TWI_CLK_DIV_MAX) && (ckdiv < TWI_CLK_DIV_MIN)) {
  400252:	e005      	b.n	400260 <twi_set_speed+0xb0>
			/* Increase clock divider */
			ckdiv++;
  400254:	69fb      	ldr	r3, [r7, #28]
  400256:	3301      	adds	r3, #1
  400258:	61fb      	str	r3, [r7, #28]
			/* Divide cldiv value */
			c_lh_div /= TWI_CLK_DIVIDER;
  40025a:	69bb      	ldr	r3, [r7, #24]
  40025c:	085b      	lsrs	r3, r3, #1
  40025e:	61bb      	str	r3, [r7, #24]
				TWI_CWGR_CKDIV(ckdiv);		
	} else {
		c_lh_div = ul_mck / (ul_speed * TWI_CLK_DIVIDER) - TWI_CLK_CALC_ARGU;

		/* cldiv must fit in 8 bits, ckdiv must fit in 3 bits */
		while ((c_lh_div > TWI_CLK_DIV_MAX) && (ckdiv < TWI_CLK_DIV_MIN)) {
  400260:	69bb      	ldr	r3, [r7, #24]
  400262:	2bff      	cmp	r3, #255	; 0xff
  400264:	d902      	bls.n	40026c <twi_set_speed+0xbc>
  400266:	69fb      	ldr	r3, [r7, #28]
  400268:	2b06      	cmp	r3, #6
  40026a:	d9f3      	bls.n	400254 <twi_set_speed+0xa4>
			c_lh_div /= TWI_CLK_DIVIDER;
		}

		/* set clock waveform generator register */
		p_twi->TWI_CWGR =
				TWI_CWGR_CLDIV(c_lh_div) | TWI_CWGR_CHDIV(c_lh_div) |
  40026c:	69bb      	ldr	r3, [r7, #24]
  40026e:	b2da      	uxtb	r2, r3
  400270:	69bb      	ldr	r3, [r7, #24]
  400272:	021b      	lsls	r3, r3, #8
  400274:	b29b      	uxth	r3, r3
  400276:	431a      	orrs	r2, r3
				TWI_CWGR_CKDIV(ckdiv);
  400278:	69fb      	ldr	r3, [r7, #28]
  40027a:	041b      	lsls	r3, r3, #16
  40027c:	f403 23e0 	and.w	r3, r3, #458752	; 0x70000
			c_lh_div /= TWI_CLK_DIVIDER;
		}

		/* set clock waveform generator register */
		p_twi->TWI_CWGR =
				TWI_CWGR_CLDIV(c_lh_div) | TWI_CWGR_CHDIV(c_lh_div) |
  400280:	431a      	orrs	r2, r3
			/* Divide cldiv value */
			c_lh_div /= TWI_CLK_DIVIDER;
		}

		/* set clock waveform generator register */
		p_twi->TWI_CWGR =
  400282:	68fb      	ldr	r3, [r7, #12]
  400284:	611a      	str	r2, [r3, #16]
				TWI_CWGR_CLDIV(c_lh_div) | TWI_CWGR_CHDIV(c_lh_div) |
				TWI_CWGR_CKDIV(ckdiv);
	}

	return PASS;
  400286:	2300      	movs	r3, #0
}
  400288:	4618      	mov	r0, r3
  40028a:	3724      	adds	r7, #36	; 0x24
  40028c:	46bd      	mov	sp, r7
  40028e:	bc80      	pop	{r7}
  400290:	4770      	bx	lr
  400292:	bf00      	nop
  400294:	00061a80 	.word	0x00061a80
  400298:	0005dc00 	.word	0x0005dc00
  40029c:	057619f1 	.word	0x057619f1
  4002a0:	3ffd1200 	.word	0x3ffd1200

004002a4 <twi_mk_addr>:
 * which byte is the MSB to start with.
 *
 * Please see the device datasheet for details on this.
 */
uint32_t twi_mk_addr(const uint8_t *addr, int len)
{
  4002a4:	b480      	push	{r7}
  4002a6:	b085      	sub	sp, #20
  4002a8:	af00      	add	r7, sp, #0
  4002aa:	6078      	str	r0, [r7, #4]
  4002ac:	6039      	str	r1, [r7, #0]
	uint32_t val;

	if (len == 0)
  4002ae:	683b      	ldr	r3, [r7, #0]
  4002b0:	2b00      	cmp	r3, #0
  4002b2:	d101      	bne.n	4002b8 <twi_mk_addr+0x14>
		return 0;
  4002b4:	2300      	movs	r3, #0
  4002b6:	e01d      	b.n	4002f4 <twi_mk_addr+0x50>

	val = addr[0];
  4002b8:	687b      	ldr	r3, [r7, #4]
  4002ba:	781b      	ldrb	r3, [r3, #0]
  4002bc:	60fb      	str	r3, [r7, #12]
	if (len > 1) {
  4002be:	683b      	ldr	r3, [r7, #0]
  4002c0:	2b01      	cmp	r3, #1
  4002c2:	dd09      	ble.n	4002d8 <twi_mk_addr+0x34>
		val <<= 8;
  4002c4:	68fb      	ldr	r3, [r7, #12]
  4002c6:	021b      	lsls	r3, r3, #8
  4002c8:	60fb      	str	r3, [r7, #12]
		val |= addr[1];
  4002ca:	687b      	ldr	r3, [r7, #4]
  4002cc:	3301      	adds	r3, #1
  4002ce:	781b      	ldrb	r3, [r3, #0]
  4002d0:	461a      	mov	r2, r3
  4002d2:	68fb      	ldr	r3, [r7, #12]
  4002d4:	4313      	orrs	r3, r2
  4002d6:	60fb      	str	r3, [r7, #12]
	}
	if (len > 2) {
  4002d8:	683b      	ldr	r3, [r7, #0]
  4002da:	2b02      	cmp	r3, #2
  4002dc:	dd09      	ble.n	4002f2 <twi_mk_addr+0x4e>
		val <<= 8;
  4002de:	68fb      	ldr	r3, [r7, #12]
  4002e0:	021b      	lsls	r3, r3, #8
  4002e2:	60fb      	str	r3, [r7, #12]
		val |= addr[2];
  4002e4:	687b      	ldr	r3, [r7, #4]
  4002e6:	3302      	adds	r3, #2
  4002e8:	781b      	ldrb	r3, [r3, #0]
  4002ea:	461a      	mov	r2, r3
  4002ec:	68fb      	ldr	r3, [r7, #12]
  4002ee:	4313      	orrs	r3, r2
  4002f0:	60fb      	str	r3, [r7, #12]
	}
	return val;
  4002f2:	68fb      	ldr	r3, [r7, #12]
}
  4002f4:	4618      	mov	r0, r3
  4002f6:	3714      	adds	r7, #20
  4002f8:	46bd      	mov	sp, r7
  4002fa:	bc80      	pop	{r7}
  4002fc:	4770      	bx	lr
  4002fe:	bf00      	nop

00400300 <twi_master_read>:
 * \param p_packet Packet information and data (see \ref twi_packet_t).
 *
 * \return TWI_SUCCESS if all bytes were read, error code otherwise.
 */
uint32_t twi_master_read(Twi *p_twi, twi_packet_t *p_packet)
{
  400300:	b580      	push	{r7, lr}
  400302:	b088      	sub	sp, #32
  400304:	af00      	add	r7, sp, #0
  400306:	6078      	str	r0, [r7, #4]
  400308:	6039      	str	r1, [r7, #0]
	uint32_t status;
	uint32_t cnt = p_packet->length;
  40030a:	683b      	ldr	r3, [r7, #0]
  40030c:	68db      	ldr	r3, [r3, #12]
  40030e:	61fb      	str	r3, [r7, #28]
	uint8_t *buffer = p_packet->buffer;
  400310:	683b      	ldr	r3, [r7, #0]
  400312:	689b      	ldr	r3, [r3, #8]
  400314:	61bb      	str	r3, [r7, #24]
	uint8_t stop_sent = 0;
  400316:	2300      	movs	r3, #0
  400318:	75fb      	strb	r3, [r7, #23]
	uint32_t timeout = TWI_TIMEOUT;;
  40031a:	f247 5330 	movw	r3, #30000	; 0x7530
  40031e:	613b      	str	r3, [r7, #16]
	
	/* Check argument */
	if (cnt == 0) {
  400320:	69fb      	ldr	r3, [r7, #28]
  400322:	2b00      	cmp	r3, #0
  400324:	d101      	bne.n	40032a <twi_master_read+0x2a>
		return TWI_INVALID_ARGUMENT;
  400326:	2301      	movs	r3, #1
  400328:	e069      	b.n	4003fe <twi_master_read+0xfe>
	}

	/* Set read mode, slave address and 3 internal address byte lengths */
	p_twi->TWI_MMR = 0;
  40032a:	687b      	ldr	r3, [r7, #4]
  40032c:	2200      	movs	r2, #0
  40032e:	605a      	str	r2, [r3, #4]
	p_twi->TWI_MMR = TWI_MMR_MREAD | TWI_MMR_DADR(p_packet->chip) |
  400330:	683b      	ldr	r3, [r7, #0]
  400332:	7c1b      	ldrb	r3, [r3, #16]
  400334:	041b      	lsls	r3, r3, #16
  400336:	f403 02fe 	and.w	r2, r3, #8323072	; 0x7f0000
			((p_packet->addr_length << TWI_MMR_IADRSZ_Pos) &
  40033a:	683b      	ldr	r3, [r7, #0]
  40033c:	685b      	ldr	r3, [r3, #4]
  40033e:	021b      	lsls	r3, r3, #8
  400340:	f403 7340 	and.w	r3, r3, #768	; 0x300
		return TWI_INVALID_ARGUMENT;
	}

	/* Set read mode, slave address and 3 internal address byte lengths */
	p_twi->TWI_MMR = 0;
	p_twi->TWI_MMR = TWI_MMR_MREAD | TWI_MMR_DADR(p_packet->chip) |
  400344:	4313      	orrs	r3, r2
  400346:	f443 5280 	orr.w	r2, r3, #4096	; 0x1000
  40034a:	687b      	ldr	r3, [r7, #4]
  40034c:	605a      	str	r2, [r3, #4]
			((p_packet->addr_length << TWI_MMR_IADRSZ_Pos) &
			TWI_MMR_IADRSZ_Msk);

	/* Set internal address for remote chip */
	p_twi->TWI_IADR = 0;
  40034e:	687b      	ldr	r3, [r7, #4]
  400350:	2200      	movs	r2, #0
  400352:	60da      	str	r2, [r3, #12]
	p_twi->TWI_IADR = twi_mk_addr(p_packet->addr, p_packet->addr_length);
  400354:	683a      	ldr	r2, [r7, #0]
  400356:	683b      	ldr	r3, [r7, #0]
  400358:	685b      	ldr	r3, [r3, #4]
  40035a:	4619      	mov	r1, r3
  40035c:	4610      	mov	r0, r2
  40035e:	4b2a      	ldr	r3, [pc, #168]	; (400408 <twi_master_read+0x108>)
  400360:	4798      	blx	r3
  400362:	4602      	mov	r2, r0
  400364:	687b      	ldr	r3, [r7, #4]
  400366:	60da      	str	r2, [r3, #12]

	/* Send a START condition */
	if (cnt == 1) {
  400368:	69fb      	ldr	r3, [r7, #28]
  40036a:	2b01      	cmp	r3, #1
  40036c:	d105      	bne.n	40037a <twi_master_read+0x7a>
		p_twi->TWI_CR = TWI_CR_START | TWI_CR_STOP;
  40036e:	687b      	ldr	r3, [r7, #4]
  400370:	2203      	movs	r2, #3
  400372:	601a      	str	r2, [r3, #0]
		stop_sent = 1;
  400374:	2301      	movs	r3, #1
  400376:	75fb      	strb	r3, [r7, #23]
  400378:	e034      	b.n	4003e4 <twi_master_read+0xe4>
	} else {
		p_twi->TWI_CR = TWI_CR_START;
  40037a:	687b      	ldr	r3, [r7, #4]
  40037c:	2201      	movs	r2, #1
  40037e:	601a      	str	r2, [r3, #0]
		stop_sent = 0;
  400380:	2300      	movs	r3, #0
  400382:	75fb      	strb	r3, [r7, #23]
	}

	while (cnt > 0) {
  400384:	e02e      	b.n	4003e4 <twi_master_read+0xe4>
		status = p_twi->TWI_SR;
  400386:	687b      	ldr	r3, [r7, #4]
  400388:	6a1b      	ldr	r3, [r3, #32]
  40038a:	60fb      	str	r3, [r7, #12]
		if (status & TWI_SR_NACK) {
  40038c:	68fb      	ldr	r3, [r7, #12]
  40038e:	f403 7380 	and.w	r3, r3, #256	; 0x100
  400392:	2b00      	cmp	r3, #0
  400394:	d001      	beq.n	40039a <twi_master_read+0x9a>
			return TWI_RECEIVE_NACK;
  400396:	2305      	movs	r3, #5
  400398:	e031      	b.n	4003fe <twi_master_read+0xfe>
		}

		if (!timeout--) {
  40039a:	693b      	ldr	r3, [r7, #16]
  40039c:	1e5a      	subs	r2, r3, #1
  40039e:	613a      	str	r2, [r7, #16]
  4003a0:	2b00      	cmp	r3, #0
  4003a2:	d101      	bne.n	4003a8 <twi_master_read+0xa8>
			return TWI_ERROR_TIMEOUT;
  4003a4:	2309      	movs	r3, #9
  4003a6:	e02a      	b.n	4003fe <twi_master_read+0xfe>
		}
				
		/* Last byte ? */
		if (cnt == 1  && !stop_sent) {
  4003a8:	69fb      	ldr	r3, [r7, #28]
  4003aa:	2b01      	cmp	r3, #1
  4003ac:	d107      	bne.n	4003be <twi_master_read+0xbe>
  4003ae:	7dfb      	ldrb	r3, [r7, #23]
  4003b0:	2b00      	cmp	r3, #0
  4003b2:	d104      	bne.n	4003be <twi_master_read+0xbe>
			p_twi->TWI_CR = TWI_CR_STOP;
  4003b4:	687b      	ldr	r3, [r7, #4]
  4003b6:	2202      	movs	r2, #2
  4003b8:	601a      	str	r2, [r3, #0]
			stop_sent = 1;
  4003ba:	2301      	movs	r3, #1
  4003bc:	75fb      	strb	r3, [r7, #23]
		}

		if (!(status & TWI_SR_RXRDY)) {
  4003be:	68fb      	ldr	r3, [r7, #12]
  4003c0:	f003 0302 	and.w	r3, r3, #2
  4003c4:	2b00      	cmp	r3, #0
  4003c6:	d100      	bne.n	4003ca <twi_master_read+0xca>
			continue;
  4003c8:	e00c      	b.n	4003e4 <twi_master_read+0xe4>
		}
		*buffer++ = p_twi->TWI_RHR;
  4003ca:	69bb      	ldr	r3, [r7, #24]
  4003cc:	1c5a      	adds	r2, r3, #1
  4003ce:	61ba      	str	r2, [r7, #24]
  4003d0:	687a      	ldr	r2, [r7, #4]
  4003d2:	6b12      	ldr	r2, [r2, #48]	; 0x30
  4003d4:	b2d2      	uxtb	r2, r2
  4003d6:	701a      	strb	r2, [r3, #0]

		cnt--;
  4003d8:	69fb      	ldr	r3, [r7, #28]
  4003da:	3b01      	subs	r3, #1
  4003dc:	61fb      	str	r3, [r7, #28]
		timeout = TWI_TIMEOUT;
  4003de:	f247 5330 	movw	r3, #30000	; 0x7530
  4003e2:	613b      	str	r3, [r7, #16]
	} else {
		p_twi->TWI_CR = TWI_CR_START;
		stop_sent = 0;
	}

	while (cnt > 0) {
  4003e4:	69fb      	ldr	r3, [r7, #28]
  4003e6:	2b00      	cmp	r3, #0
  4003e8:	d1cd      	bne.n	400386 <twi_master_read+0x86>

		cnt--;
		timeout = TWI_TIMEOUT;
	}

	while (!(p_twi->TWI_SR & TWI_SR_TXCOMP)) {
  4003ea:	bf00      	nop
  4003ec:	687b      	ldr	r3, [r7, #4]
  4003ee:	6a1b      	ldr	r3, [r3, #32]
  4003f0:	f003 0301 	and.w	r3, r3, #1
  4003f4:	2b00      	cmp	r3, #0
  4003f6:	d0f9      	beq.n	4003ec <twi_master_read+0xec>
	}

	p_twi->TWI_SR;
  4003f8:	687b      	ldr	r3, [r7, #4]
  4003fa:	6a1b      	ldr	r3, [r3, #32]

	return TWI_SUCCESS;
  4003fc:	2300      	movs	r3, #0
}
  4003fe:	4618      	mov	r0, r3
  400400:	3720      	adds	r7, #32
  400402:	46bd      	mov	sp, r7
  400404:	bd80      	pop	{r7, pc}
  400406:	bf00      	nop
  400408:	004002a5 	.word	0x004002a5

0040040c <twi_master_write>:
 * \param p_packet Packet information and data (see \ref twi_packet_t).
 *
 * \return TWI_SUCCESS if all bytes were written, error code otherwise.
 */
uint32_t twi_master_write(Twi *p_twi, twi_packet_t *p_packet)
{
  40040c:	b580      	push	{r7, lr}
  40040e:	b086      	sub	sp, #24
  400410:	af00      	add	r7, sp, #0
  400412:	6078      	str	r0, [r7, #4]
  400414:	6039      	str	r1, [r7, #0]
	uint32_t status;
	uint32_t cnt = p_packet->length;
  400416:	683b      	ldr	r3, [r7, #0]
  400418:	68db      	ldr	r3, [r3, #12]
  40041a:	617b      	str	r3, [r7, #20]
	uint8_t *buffer = p_packet->buffer;
  40041c:	683b      	ldr	r3, [r7, #0]
  40041e:	689b      	ldr	r3, [r3, #8]
  400420:	613b      	str	r3, [r7, #16]

	/* Check argument */
	if (cnt == 0) {
  400422:	697b      	ldr	r3, [r7, #20]
  400424:	2b00      	cmp	r3, #0
  400426:	d101      	bne.n	40042c <twi_master_write+0x20>
		return TWI_INVALID_ARGUMENT;
  400428:	2301      	movs	r3, #1
  40042a:	e056      	b.n	4004da <twi_master_write+0xce>
	}

	/* Set write mode, slave address and 3 internal address byte lengths */
	p_twi->TWI_MMR = 0;
  40042c:	687b      	ldr	r3, [r7, #4]
  40042e:	2200      	movs	r2, #0
  400430:	605a      	str	r2, [r3, #4]
	p_twi->TWI_MMR = TWI_MMR_DADR(p_packet->chip) |
  400432:	683b      	ldr	r3, [r7, #0]
  400434:	7c1b      	ldrb	r3, [r3, #16]
  400436:	041b      	lsls	r3, r3, #16
  400438:	f403 02fe 	and.w	r2, r3, #8323072	; 0x7f0000
			((p_packet->addr_length << TWI_MMR_IADRSZ_Pos) &
  40043c:	683b      	ldr	r3, [r7, #0]
  40043e:	685b      	ldr	r3, [r3, #4]
  400440:	021b      	lsls	r3, r3, #8
  400442:	f403 7340 	and.w	r3, r3, #768	; 0x300
		return TWI_INVALID_ARGUMENT;
	}

	/* Set write mode, slave address and 3 internal address byte lengths */
	p_twi->TWI_MMR = 0;
	p_twi->TWI_MMR = TWI_MMR_DADR(p_packet->chip) |
  400446:	431a      	orrs	r2, r3
  400448:	687b      	ldr	r3, [r7, #4]
  40044a:	605a      	str	r2, [r3, #4]
			((p_packet->addr_length << TWI_MMR_IADRSZ_Pos) &
			TWI_MMR_IADRSZ_Msk);

	/* Set internal address for remote chip */
	p_twi->TWI_IADR = 0;
  40044c:	687b      	ldr	r3, [r7, #4]
  40044e:	2200      	movs	r2, #0
  400450:	60da      	str	r2, [r3, #12]
	p_twi->TWI_IADR = twi_mk_addr(p_packet->addr, p_packet->addr_length);
  400452:	683a      	ldr	r2, [r7, #0]
  400454:	683b      	ldr	r3, [r7, #0]
  400456:	685b      	ldr	r3, [r3, #4]
  400458:	4619      	mov	r1, r3
  40045a:	4610      	mov	r0, r2
  40045c:	4b21      	ldr	r3, [pc, #132]	; (4004e4 <twi_master_write+0xd8>)
  40045e:	4798      	blx	r3
  400460:	4602      	mov	r2, r0
  400462:	687b      	ldr	r3, [r7, #4]
  400464:	60da      	str	r2, [r3, #12]

	/* Send all bytes */
	while (cnt > 0) {
  400466:	e019      	b.n	40049c <twi_master_write+0x90>
		status = p_twi->TWI_SR;
  400468:	687b      	ldr	r3, [r7, #4]
  40046a:	6a1b      	ldr	r3, [r3, #32]
  40046c:	60fb      	str	r3, [r7, #12]
		if (status & TWI_SR_NACK) {
  40046e:	68fb      	ldr	r3, [r7, #12]
  400470:	f403 7380 	and.w	r3, r3, #256	; 0x100
  400474:	2b00      	cmp	r3, #0
  400476:	d001      	beq.n	40047c <twi_master_write+0x70>
			return TWI_RECEIVE_NACK;
  400478:	2305      	movs	r3, #5
  40047a:	e02e      	b.n	4004da <twi_master_write+0xce>
		}

		if (!(status & TWI_SR_TXRDY)) {
  40047c:	68fb      	ldr	r3, [r7, #12]
  40047e:	f003 0304 	and.w	r3, r3, #4
  400482:	2b00      	cmp	r3, #0
  400484:	d100      	bne.n	400488 <twi_master_write+0x7c>
			continue;
  400486:	e009      	b.n	40049c <twi_master_write+0x90>
		}
		p_twi->TWI_THR = *buffer++;
  400488:	693b      	ldr	r3, [r7, #16]
  40048a:	1c5a      	adds	r2, r3, #1
  40048c:	613a      	str	r2, [r7, #16]
  40048e:	781b      	ldrb	r3, [r3, #0]
  400490:	461a      	mov	r2, r3
  400492:	687b      	ldr	r3, [r7, #4]
  400494:	635a      	str	r2, [r3, #52]	; 0x34

		cnt--;
  400496:	697b      	ldr	r3, [r7, #20]
  400498:	3b01      	subs	r3, #1
  40049a:	617b      	str	r3, [r7, #20]
	/* Set internal address for remote chip */
	p_twi->TWI_IADR = 0;
	p_twi->TWI_IADR = twi_mk_addr(p_packet->addr, p_packet->addr_length);

	/* Send all bytes */
	while (cnt > 0) {
  40049c:	697b      	ldr	r3, [r7, #20]
  40049e:	2b00      	cmp	r3, #0
  4004a0:	d1e2      	bne.n	400468 <twi_master_write+0x5c>

		cnt--;
	}

	while (1) {
		status = p_twi->TWI_SR;
  4004a2:	687b      	ldr	r3, [r7, #4]
  4004a4:	6a1b      	ldr	r3, [r3, #32]
  4004a6:	60fb      	str	r3, [r7, #12]
		if (status & TWI_SR_NACK) {
  4004a8:	68fb      	ldr	r3, [r7, #12]
  4004aa:	f403 7380 	and.w	r3, r3, #256	; 0x100
  4004ae:	2b00      	cmp	r3, #0
  4004b0:	d001      	beq.n	4004b6 <twi_master_write+0xaa>
			return TWI_RECEIVE_NACK;
  4004b2:	2305      	movs	r3, #5
  4004b4:	e011      	b.n	4004da <twi_master_write+0xce>
		}

		if (status & TWI_SR_TXRDY) {
  4004b6:	68fb      	ldr	r3, [r7, #12]
  4004b8:	f003 0304 	and.w	r3, r3, #4
  4004bc:	2b00      	cmp	r3, #0
  4004be:	d100      	bne.n	4004c2 <twi_master_write+0xb6>
			break;
		}
	}
  4004c0:	e7ef      	b.n	4004a2 <twi_master_write+0x96>
		if (status & TWI_SR_NACK) {
			return TWI_RECEIVE_NACK;
		}

		if (status & TWI_SR_TXRDY) {
			break;
  4004c2:	bf00      	nop
		}
	}

	p_twi->TWI_CR = TWI_CR_STOP;
  4004c4:	687b      	ldr	r3, [r7, #4]
  4004c6:	2202      	movs	r2, #2
  4004c8:	601a      	str	r2, [r3, #0]

	while (!(p_twi->TWI_SR & TWI_SR_TXCOMP)) {
  4004ca:	bf00      	nop
  4004cc:	687b      	ldr	r3, [r7, #4]
  4004ce:	6a1b      	ldr	r3, [r3, #32]
  4004d0:	f003 0301 	and.w	r3, r3, #1
  4004d4:	2b00      	cmp	r3, #0
  4004d6:	d0f9      	beq.n	4004cc <twi_master_write+0xc0>
	}

	return TWI_SUCCESS;
  4004d8:	2300      	movs	r3, #0
}
  4004da:	4618      	mov	r0, r3
  4004dc:	3718      	adds	r7, #24
  4004de:	46bd      	mov	sp, r7
  4004e0:	bd80      	pop	{r7, pc}
  4004e2:	bf00      	nop
  4004e4:	004002a5 	.word	0x004002a5

004004e8 <twi_reset>:
 * \brief Reset TWI.
 *
 * \param p_twi Pointer to a TWI instance.
 */
void twi_reset(Twi *p_twi)
{
  4004e8:	b480      	push	{r7}
  4004ea:	b083      	sub	sp, #12
  4004ec:	af00      	add	r7, sp, #0
  4004ee:	6078      	str	r0, [r7, #4]
	/* Set SWRST bit to reset TWI peripheral */
	p_twi->TWI_CR = TWI_CR_SWRST;
  4004f0:	687b      	ldr	r3, [r7, #4]
  4004f2:	2280      	movs	r2, #128	; 0x80
  4004f4:	601a      	str	r2, [r3, #0]
	p_twi->TWI_RHR;
  4004f6:	687b      	ldr	r3, [r7, #4]
  4004f8:	6b1b      	ldr	r3, [r3, #48]	; 0x30
}
  4004fa:	bf00      	nop
  4004fc:	370c      	adds	r7, #12
  4004fe:	46bd      	mov	sp, r7
  400500:	bc80      	pop	{r7}
  400502:	4770      	bx	lr

00400504 <usart_set_async_baudrate>:
 * \retval 1 Baud rate set point is out of range for the given input clock
 * frequency.
 */
uint32_t usart_set_async_baudrate(Usart *p_usart,
		uint32_t baudrate, uint32_t ul_mck)
{
  400504:	b480      	push	{r7}
  400506:	b089      	sub	sp, #36	; 0x24
  400508:	af00      	add	r7, sp, #0
  40050a:	60f8      	str	r0, [r7, #12]
  40050c:	60b9      	str	r1, [r7, #8]
  40050e:	607a      	str	r2, [r7, #4]
	uint32_t cd_fp;
	uint32_t cd;
	uint32_t fp;

	/* Calculate the receiver sampling divide of baudrate clock. */
	if (ul_mck >= HIGH_FRQ_SAMPLE_DIV * baudrate) {
  400510:	68bb      	ldr	r3, [r7, #8]
  400512:	011a      	lsls	r2, r3, #4
  400514:	687b      	ldr	r3, [r7, #4]
  400516:	429a      	cmp	r2, r3
  400518:	d802      	bhi.n	400520 <usart_set_async_baudrate+0x1c>
		over = HIGH_FRQ_SAMPLE_DIV;
  40051a:	2310      	movs	r3, #16
  40051c:	61fb      	str	r3, [r7, #28]
  40051e:	e001      	b.n	400524 <usart_set_async_baudrate+0x20>
	} else {
		over = LOW_FRQ_SAMPLE_DIV;
  400520:	2308      	movs	r3, #8
  400522:	61fb      	str	r3, [r7, #28]
	}

	/* Calculate clock divider according to the fraction calculated formula. */
	cd_fp = (8 * ul_mck + (over * baudrate) / 2) / (over * baudrate);
  400524:	687b      	ldr	r3, [r7, #4]
  400526:	00da      	lsls	r2, r3, #3
  400528:	69fb      	ldr	r3, [r7, #28]
  40052a:	68b9      	ldr	r1, [r7, #8]
  40052c:	fb01 f303 	mul.w	r3, r1, r3
  400530:	085b      	lsrs	r3, r3, #1
  400532:	441a      	add	r2, r3
  400534:	69fb      	ldr	r3, [r7, #28]
  400536:	68b9      	ldr	r1, [r7, #8]
  400538:	fb01 f303 	mul.w	r3, r1, r3
  40053c:	fbb2 f3f3 	udiv	r3, r2, r3
  400540:	61bb      	str	r3, [r7, #24]
	cd = cd_fp >> 3;
  400542:	69bb      	ldr	r3, [r7, #24]
  400544:	08db      	lsrs	r3, r3, #3
  400546:	617b      	str	r3, [r7, #20]
	fp = cd_fp & 0x07;
  400548:	69bb      	ldr	r3, [r7, #24]
  40054a:	f003 0307 	and.w	r3, r3, #7
  40054e:	613b      	str	r3, [r7, #16]
	if (cd < MIN_CD_VALUE || cd > MAX_CD_VALUE) {
  400550:	697b      	ldr	r3, [r7, #20]
  400552:	2b00      	cmp	r3, #0
  400554:	d003      	beq.n	40055e <usart_set_async_baudrate+0x5a>
  400556:	697b      	ldr	r3, [r7, #20]
  400558:	f5b3 3f80 	cmp.w	r3, #65536	; 0x10000
  40055c:	d301      	bcc.n	400562 <usart_set_async_baudrate+0x5e>
		return 1;
  40055e:	2301      	movs	r3, #1
  400560:	e00f      	b.n	400582 <usart_set_async_baudrate+0x7e>
	}

	/* Configure the OVER bit in MR register. */
	if (over == 8) {
  400562:	69fb      	ldr	r3, [r7, #28]
  400564:	2b08      	cmp	r3, #8
  400566:	d105      	bne.n	400574 <usart_set_async_baudrate+0x70>
		p_usart->US_MR |= US_MR_OVER;
  400568:	68fb      	ldr	r3, [r7, #12]
  40056a:	685b      	ldr	r3, [r3, #4]
  40056c:	f443 2200 	orr.w	r2, r3, #524288	; 0x80000
  400570:	68fb      	ldr	r3, [r7, #12]
  400572:	605a      	str	r2, [r3, #4]
	}

	/* Configure the baudrate generate register. */
	p_usart->US_BRGR = (cd << US_BRGR_CD_Pos) | (fp << US_BRGR_FP_Pos);
  400574:	693b      	ldr	r3, [r7, #16]
  400576:	041a      	lsls	r2, r3, #16
  400578:	697b      	ldr	r3, [r7, #20]
  40057a:	431a      	orrs	r2, r3
  40057c:	68fb      	ldr	r3, [r7, #12]
  40057e:	621a      	str	r2, [r3, #32]

	return 0;
  400580:	2300      	movs	r3, #0
}
  400582:	4618      	mov	r0, r3
  400584:	3724      	adds	r7, #36	; 0x24
  400586:	46bd      	mov	sp, r7
  400588:	bc80      	pop	{r7}
  40058a:	4770      	bx	lr

0040058c <usart_reset>:
 * \brief Reset the USART and disable TX and RX.
 *
 * \param p_usart Pointer to a USART instance.
 */
void usart_reset(Usart *p_usart)
{
  40058c:	b580      	push	{r7, lr}
  40058e:	b082      	sub	sp, #8
  400590:	af00      	add	r7, sp, #0
  400592:	6078      	str	r0, [r7, #4]
	/* Disable the Write Protect. */
	usart_disable_writeprotect(p_usart);
  400594:	6878      	ldr	r0, [r7, #4]
  400596:	4b0f      	ldr	r3, [pc, #60]	; (4005d4 <usart_reset+0x48>)
  400598:	4798      	blx	r3

	/* Reset registers that could cause unpredictable behavior after reset. */
	p_usart->US_MR = 0;
  40059a:	687b      	ldr	r3, [r7, #4]
  40059c:	2200      	movs	r2, #0
  40059e:	605a      	str	r2, [r3, #4]
	p_usart->US_RTOR = 0;
  4005a0:	687b      	ldr	r3, [r7, #4]
  4005a2:	2200      	movs	r2, #0
  4005a4:	625a      	str	r2, [r3, #36]	; 0x24
	p_usart->US_TTGR = 0;
  4005a6:	687b      	ldr	r3, [r7, #4]
  4005a8:	2200      	movs	r2, #0
  4005aa:	629a      	str	r2, [r3, #40]	; 0x28

	/* Disable TX and RX. */
	usart_reset_tx(p_usart);
  4005ac:	6878      	ldr	r0, [r7, #4]
  4005ae:	4b0a      	ldr	r3, [pc, #40]	; (4005d8 <usart_reset+0x4c>)
  4005b0:	4798      	blx	r3
	usart_reset_rx(p_usart);
  4005b2:	6878      	ldr	r0, [r7, #4]
  4005b4:	4b09      	ldr	r3, [pc, #36]	; (4005dc <usart_reset+0x50>)
  4005b6:	4798      	blx	r3
	/* Reset status bits. */
	usart_reset_status(p_usart);
  4005b8:	6878      	ldr	r0, [r7, #4]
  4005ba:	4b09      	ldr	r3, [pc, #36]	; (4005e0 <usart_reset+0x54>)
  4005bc:	4798      	blx	r3
	/* Turn off RTS and DTR if exist. */
	usart_drive_RTS_pin_high(p_usart);
  4005be:	6878      	ldr	r0, [r7, #4]
  4005c0:	4b08      	ldr	r3, [pc, #32]	; (4005e4 <usart_reset+0x58>)
  4005c2:	4798      	blx	r3
#if (SAM3S || SAM4S || SAM3U || SAM4L || SAM4E)
	usart_drive_DTR_pin_high(p_usart);
  4005c4:	6878      	ldr	r0, [r7, #4]
  4005c6:	4b08      	ldr	r3, [pc, #32]	; (4005e8 <usart_reset+0x5c>)
  4005c8:	4798      	blx	r3
#endif
}
  4005ca:	bf00      	nop
  4005cc:	3708      	adds	r7, #8
  4005ce:	46bd      	mov	sp, r7
  4005d0:	bd80      	pop	{r7, pc}
  4005d2:	bf00      	nop
  4005d4:	00400811 	.word	0x00400811
  4005d8:	004006e1 	.word	0x004006e1
  4005dc:	00400729 	.word	0x00400729
  4005e0:	00400775 	.word	0x00400775
  4005e4:	004007ad 	.word	0x004007ad
  4005e8:	00400791 	.word	0x00400791

004005ec <usart_init_rs232>:
 * \retval 0 on success.
 * \retval 1 on failure.
 */
uint32_t usart_init_rs232(Usart *p_usart,
		const sam_usart_opt_t *p_usart_opt, uint32_t ul_mck)
{
  4005ec:	b580      	push	{r7, lr}
  4005ee:	b084      	sub	sp, #16
  4005f0:	af00      	add	r7, sp, #0
  4005f2:	60f8      	str	r0, [r7, #12]
  4005f4:	60b9      	str	r1, [r7, #8]
  4005f6:	607a      	str	r2, [r7, #4]
	static uint32_t ul_reg_val;

	/* Reset the USART and shut down TX and RX. */
	usart_reset(p_usart);
  4005f8:	68f8      	ldr	r0, [r7, #12]
  4005fa:	4b1a      	ldr	r3, [pc, #104]	; (400664 <usart_init_rs232+0x78>)
  4005fc:	4798      	blx	r3

	ul_reg_val = 0;
  4005fe:	4b1a      	ldr	r3, [pc, #104]	; (400668 <usart_init_rs232+0x7c>)
  400600:	2200      	movs	r2, #0
  400602:	601a      	str	r2, [r3, #0]
	/* Check whether the input values are legal. */
	if (!p_usart_opt || usart_set_async_baudrate(p_usart,
  400604:	68bb      	ldr	r3, [r7, #8]
  400606:	2b00      	cmp	r3, #0
  400608:	d009      	beq.n	40061e <usart_init_rs232+0x32>
  40060a:	68bb      	ldr	r3, [r7, #8]
  40060c:	681b      	ldr	r3, [r3, #0]
  40060e:	687a      	ldr	r2, [r7, #4]
  400610:	4619      	mov	r1, r3
  400612:	68f8      	ldr	r0, [r7, #12]
  400614:	4b15      	ldr	r3, [pc, #84]	; (40066c <usart_init_rs232+0x80>)
  400616:	4798      	blx	r3
  400618:	4603      	mov	r3, r0
  40061a:	2b00      	cmp	r3, #0
  40061c:	d001      	beq.n	400622 <usart_init_rs232+0x36>
			p_usart_opt->baudrate, ul_mck)) {
		return 1;
  40061e:	2301      	movs	r3, #1
  400620:	e01b      	b.n	40065a <usart_init_rs232+0x6e>
	}

	/* Configure the USART option. */
	ul_reg_val |= p_usart_opt->char_length | p_usart_opt->parity_type |
  400622:	68bb      	ldr	r3, [r7, #8]
  400624:	685a      	ldr	r2, [r3, #4]
  400626:	68bb      	ldr	r3, [r7, #8]
  400628:	689b      	ldr	r3, [r3, #8]
  40062a:	431a      	orrs	r2, r3
			p_usart_opt->channel_mode | p_usart_opt->stop_bits;
  40062c:	68bb      	ldr	r3, [r7, #8]
  40062e:	691b      	ldr	r3, [r3, #16]
			p_usart_opt->baudrate, ul_mck)) {
		return 1;
	}

	/* Configure the USART option. */
	ul_reg_val |= p_usart_opt->char_length | p_usart_opt->parity_type |
  400630:	431a      	orrs	r2, r3
			p_usart_opt->channel_mode | p_usart_opt->stop_bits;
  400632:	68bb      	ldr	r3, [r7, #8]
  400634:	68db      	ldr	r3, [r3, #12]
  400636:	431a      	orrs	r2, r3
			p_usart_opt->baudrate, ul_mck)) {
		return 1;
	}

	/* Configure the USART option. */
	ul_reg_val |= p_usart_opt->char_length | p_usart_opt->parity_type |
  400638:	4b0b      	ldr	r3, [pc, #44]	; (400668 <usart_init_rs232+0x7c>)
  40063a:	681b      	ldr	r3, [r3, #0]
  40063c:	4313      	orrs	r3, r2
  40063e:	4a0a      	ldr	r2, [pc, #40]	; (400668 <usart_init_rs232+0x7c>)
  400640:	6013      	str	r3, [r2, #0]
			p_usart_opt->channel_mode | p_usart_opt->stop_bits;

	/* Configure the USART mode as normal mode. */
	ul_reg_val |= US_MR_USART_MODE_NORMAL;
  400642:	4b09      	ldr	r3, [pc, #36]	; (400668 <usart_init_rs232+0x7c>)
  400644:	681b      	ldr	r3, [r3, #0]
  400646:	4a08      	ldr	r2, [pc, #32]	; (400668 <usart_init_rs232+0x7c>)
  400648:	6013      	str	r3, [r2, #0]

	p_usart->US_MR |= ul_reg_val;
  40064a:	68fb      	ldr	r3, [r7, #12]
  40064c:	685a      	ldr	r2, [r3, #4]
  40064e:	4b06      	ldr	r3, [pc, #24]	; (400668 <usart_init_rs232+0x7c>)
  400650:	681b      	ldr	r3, [r3, #0]
  400652:	431a      	orrs	r2, r3
  400654:	68fb      	ldr	r3, [r7, #12]
  400656:	605a      	str	r2, [r3, #4]

	return 0;
  400658:	2300      	movs	r3, #0
}
  40065a:	4618      	mov	r0, r3
  40065c:	3710      	adds	r7, #16
  40065e:	46bd      	mov	sp, r7
  400660:	bd80      	pop	{r7, pc}
  400662:	bf00      	nop
  400664:	0040058d 	.word	0x0040058d
  400668:	20000454 	.word	0x20000454
  40066c:	00400505 	.word	0x00400505

00400670 <usart_init_rs485>:
 * \retval 0 on success.
 * \retval 1 on failure.
 */
uint32_t usart_init_rs485(Usart *p_usart,
		const sam_usart_opt_t *p_usart_opt, uint32_t ul_mck)
{
  400670:	b580      	push	{r7, lr}
  400672:	b084      	sub	sp, #16
  400674:	af00      	add	r7, sp, #0
  400676:	60f8      	str	r0, [r7, #12]
  400678:	60b9      	str	r1, [r7, #8]
  40067a:	607a      	str	r2, [r7, #4]
	/* Initialize the USART as standard RS232. */
	if (usart_init_rs232(p_usart, p_usart_opt, ul_mck)) {
  40067c:	687a      	ldr	r2, [r7, #4]
  40067e:	68b9      	ldr	r1, [r7, #8]
  400680:	68f8      	ldr	r0, [r7, #12]
  400682:	4b0a      	ldr	r3, [pc, #40]	; (4006ac <usart_init_rs485+0x3c>)
  400684:	4798      	blx	r3
  400686:	4603      	mov	r3, r0
  400688:	2b00      	cmp	r3, #0
  40068a:	d001      	beq.n	400690 <usart_init_rs485+0x20>
		return 1;
  40068c:	2301      	movs	r3, #1
  40068e:	e008      	b.n	4006a2 <usart_init_rs485+0x32>
	}

	/* Set RS485 mode. */
	p_usart->US_MR = (p_usart->US_MR & ~US_MR_USART_MODE_Msk) |
  400690:	68fb      	ldr	r3, [r7, #12]
  400692:	685b      	ldr	r3, [r3, #4]
  400694:	f023 030f 	bic.w	r3, r3, #15
  400698:	f043 0201 	orr.w	r2, r3, #1
  40069c:	68fb      	ldr	r3, [r7, #12]
  40069e:	605a      	str	r2, [r3, #4]
			US_MR_USART_MODE_RS485;

	return 0;
  4006a0:	2300      	movs	r3, #0
}
  4006a2:	4618      	mov	r0, r3
  4006a4:	3710      	adds	r7, #16
  4006a6:	46bd      	mov	sp, r7
  4006a8:	bd80      	pop	{r7, pc}
  4006aa:	bf00      	nop
  4006ac:	004005ed 	.word	0x004005ed

004006b0 <usart_enable_tx>:
 * \brief Enable USART transmitter.
 *
 * \param p_usart Pointer to a USART instance.
 */
void usart_enable_tx(Usart *p_usart)
{
  4006b0:	b480      	push	{r7}
  4006b2:	b083      	sub	sp, #12
  4006b4:	af00      	add	r7, sp, #0
  4006b6:	6078      	str	r0, [r7, #4]
	p_usart->US_CR = US_CR_TXEN;
  4006b8:	687b      	ldr	r3, [r7, #4]
  4006ba:	2240      	movs	r2, #64	; 0x40
  4006bc:	601a      	str	r2, [r3, #0]
}
  4006be:	bf00      	nop
  4006c0:	370c      	adds	r7, #12
  4006c2:	46bd      	mov	sp, r7
  4006c4:	bc80      	pop	{r7}
  4006c6:	4770      	bx	lr

004006c8 <usart_disable_tx>:
 * \brief Disable USART transmitter.
 *
 * \param p_usart Pointer to a USART instance.
 */
void usart_disable_tx(Usart *p_usart)
{
  4006c8:	b480      	push	{r7}
  4006ca:	b083      	sub	sp, #12
  4006cc:	af00      	add	r7, sp, #0
  4006ce:	6078      	str	r0, [r7, #4]
	p_usart->US_CR = US_CR_TXDIS;
  4006d0:	687b      	ldr	r3, [r7, #4]
  4006d2:	2280      	movs	r2, #128	; 0x80
  4006d4:	601a      	str	r2, [r3, #0]
}
  4006d6:	bf00      	nop
  4006d8:	370c      	adds	r7, #12
  4006da:	46bd      	mov	sp, r7
  4006dc:	bc80      	pop	{r7}
  4006de:	4770      	bx	lr

004006e0 <usart_reset_tx>:
 * \brief Immediately stop and disable USART transmitter.
 *
 * \param p_usart Pointer to a USART instance.
 */
void usart_reset_tx(Usart *p_usart)
{
  4006e0:	b480      	push	{r7}
  4006e2:	b083      	sub	sp, #12
  4006e4:	af00      	add	r7, sp, #0
  4006e6:	6078      	str	r0, [r7, #4]
	/* Reset transmitter */
	p_usart->US_CR = US_CR_RSTTX | US_CR_TXDIS;
  4006e8:	687b      	ldr	r3, [r7, #4]
  4006ea:	2288      	movs	r2, #136	; 0x88
  4006ec:	601a      	str	r2, [r3, #0]
}
  4006ee:	bf00      	nop
  4006f0:	370c      	adds	r7, #12
  4006f2:	46bd      	mov	sp, r7
  4006f4:	bc80      	pop	{r7}
  4006f6:	4770      	bx	lr

004006f8 <usart_enable_rx>:
 * \brief Enable USART receiver.
 *
 * \param p_usart Pointer to a USART instance.
 */
void usart_enable_rx(Usart *p_usart)
{
  4006f8:	b480      	push	{r7}
  4006fa:	b083      	sub	sp, #12
  4006fc:	af00      	add	r7, sp, #0
  4006fe:	6078      	str	r0, [r7, #4]
	p_usart->US_CR = US_CR_RXEN;
  400700:	687b      	ldr	r3, [r7, #4]
  400702:	2210      	movs	r2, #16
  400704:	601a      	str	r2, [r3, #0]
}
  400706:	bf00      	nop
  400708:	370c      	adds	r7, #12
  40070a:	46bd      	mov	sp, r7
  40070c:	bc80      	pop	{r7}
  40070e:	4770      	bx	lr

00400710 <usart_disable_rx>:
 * \brief Disable USART receiver.
 *
 * \param p_usart Pointer to a USART instance.
 */
void usart_disable_rx(Usart *p_usart)
{
  400710:	b480      	push	{r7}
  400712:	b083      	sub	sp, #12
  400714:	af00      	add	r7, sp, #0
  400716:	6078      	str	r0, [r7, #4]
	p_usart->US_CR = US_CR_RXDIS;
  400718:	687b      	ldr	r3, [r7, #4]
  40071a:	2220      	movs	r2, #32
  40071c:	601a      	str	r2, [r3, #0]
}
  40071e:	bf00      	nop
  400720:	370c      	adds	r7, #12
  400722:	46bd      	mov	sp, r7
  400724:	bc80      	pop	{r7}
  400726:	4770      	bx	lr

00400728 <usart_reset_rx>:
 * \brief Immediately stop and disable USART receiver.
 *
 * \param p_usart Pointer to a USART instance.
 */
void usart_reset_rx(Usart *p_usart)
{
  400728:	b480      	push	{r7}
  40072a:	b083      	sub	sp, #12
  40072c:	af00      	add	r7, sp, #0
  40072e:	6078      	str	r0, [r7, #4]
	/* Reset Receiver */
	p_usart->US_CR = US_CR_RSTRX | US_CR_RXDIS;
  400730:	687b      	ldr	r3, [r7, #4]
  400732:	2224      	movs	r2, #36	; 0x24
  400734:	601a      	str	r2, [r3, #0]
}
  400736:	bf00      	nop
  400738:	370c      	adds	r7, #12
  40073a:	46bd      	mov	sp, r7
  40073c:	bc80      	pop	{r7}
  40073e:	4770      	bx	lr

00400740 <usart_disable_interrupt>:
 *
 * \param p_usart Pointer to a USART peripheral.
 * \param ul_sources Interrupt sources bit map.
 */
void usart_disable_interrupt(Usart *p_usart, uint32_t ul_sources)
{
  400740:	b480      	push	{r7}
  400742:	b083      	sub	sp, #12
  400744:	af00      	add	r7, sp, #0
  400746:	6078      	str	r0, [r7, #4]
  400748:	6039      	str	r1, [r7, #0]
	p_usart->US_IDR = ul_sources;
  40074a:	687b      	ldr	r3, [r7, #4]
  40074c:	683a      	ldr	r2, [r7, #0]
  40074e:	60da      	str	r2, [r3, #12]
}
  400750:	bf00      	nop
  400752:	370c      	adds	r7, #12
  400754:	46bd      	mov	sp, r7
  400756:	bc80      	pop	{r7}
  400758:	4770      	bx	lr
  40075a:	bf00      	nop

0040075c <usart_get_status>:
 * \param p_usart Pointer to a USART instance.
 *
 * \return The current USART status.
 */
uint32_t usart_get_status(Usart *p_usart)
{
  40075c:	b480      	push	{r7}
  40075e:	b083      	sub	sp, #12
  400760:	af00      	add	r7, sp, #0
  400762:	6078      	str	r0, [r7, #4]
	return p_usart->US_CSR;
  400764:	687b      	ldr	r3, [r7, #4]
  400766:	695b      	ldr	r3, [r3, #20]
}
  400768:	4618      	mov	r0, r3
  40076a:	370c      	adds	r7, #12
  40076c:	46bd      	mov	sp, r7
  40076e:	bc80      	pop	{r7}
  400770:	4770      	bx	lr
  400772:	bf00      	nop

00400774 <usart_reset_status>:
 * \brief Reset status bits (PARE, OVER, MANERR, UNRE and PXBRK in US_CSR).
 *
 * \param p_usart Pointer to a USART instance.
 */
void usart_reset_status(Usart *p_usart)
{
  400774:	b480      	push	{r7}
  400776:	b083      	sub	sp, #12
  400778:	af00      	add	r7, sp, #0
  40077a:	6078      	str	r0, [r7, #4]
	p_usart->US_CR = US_CR_RSTSTA;
  40077c:	687b      	ldr	r3, [r7, #4]
  40077e:	f44f 7280 	mov.w	r2, #256	; 0x100
  400782:	601a      	str	r2, [r3, #0]
}
  400784:	bf00      	nop
  400786:	370c      	adds	r7, #12
  400788:	46bd      	mov	sp, r7
  40078a:	bc80      	pop	{r7}
  40078c:	4770      	bx	lr
  40078e:	bf00      	nop

00400790 <usart_drive_DTR_pin_high>:
 * \brief Drive the pin DTR to 1.
 *
 * \param p_usart Pointer to a USART instance.
 */
void usart_drive_DTR_pin_high(Usart *p_usart)
{
  400790:	b480      	push	{r7}
  400792:	b083      	sub	sp, #12
  400794:	af00      	add	r7, sp, #0
  400796:	6078      	str	r0, [r7, #4]
	p_usart->US_CR = US_CR_DTRDIS;
  400798:	687b      	ldr	r3, [r7, #4]
  40079a:	f44f 3200 	mov.w	r2, #131072	; 0x20000
  40079e:	601a      	str	r2, [r3, #0]
}
  4007a0:	bf00      	nop
  4007a2:	370c      	adds	r7, #12
  4007a4:	46bd      	mov	sp, r7
  4007a6:	bc80      	pop	{r7}
  4007a8:	4770      	bx	lr
  4007aa:	bf00      	nop

004007ac <usart_drive_RTS_pin_high>:
 * \brief Drive the pin RTS to 1.
 *
 * \param p_usart Pointer to a USART instance.
 */
void usart_drive_RTS_pin_high(Usart *p_usart)
{
  4007ac:	b480      	push	{r7}
  4007ae:	b083      	sub	sp, #12
  4007b0:	af00      	add	r7, sp, #0
  4007b2:	6078      	str	r0, [r7, #4]
	p_usart->US_CR = US_CR_RTSDIS;
  4007b4:	687b      	ldr	r3, [r7, #4]
  4007b6:	f44f 2200 	mov.w	r2, #524288	; 0x80000
  4007ba:	601a      	str	r2, [r3, #0]
}
  4007bc:	bf00      	nop
  4007be:	370c      	adds	r7, #12
  4007c0:	46bd      	mov	sp, r7
  4007c2:	bc80      	pop	{r7}
  4007c4:	4770      	bx	lr
  4007c6:	bf00      	nop

004007c8 <usart_get_pdc_base>:
 * \param p_usart Pointer to a UART instance.
 *
 * \return USART PDC registers base for PDC driver to access.
 */
Pdc *usart_get_pdc_base(Usart *p_usart)
{
  4007c8:	b480      	push	{r7}
  4007ca:	b085      	sub	sp, #20
  4007cc:	af00      	add	r7, sp, #0
  4007ce:	6078      	str	r0, [r7, #4]
	Pdc *p_pdc_base;

	p_pdc_base = (Pdc *)NULL;
  4007d0:	2300      	movs	r3, #0
  4007d2:	60fb      	str	r3, [r7, #12]
		p_pdc_base = PDC_USART;
		return p_pdc_base;
	}
#endif
#ifdef PDC_USART0
	if (p_usart == USART0) {
  4007d4:	687b      	ldr	r3, [r7, #4]
  4007d6:	4a0a      	ldr	r2, [pc, #40]	; (400800 <usart_get_pdc_base+0x38>)
  4007d8:	4293      	cmp	r3, r2
  4007da:	d103      	bne.n	4007e4 <usart_get_pdc_base+0x1c>
		p_pdc_base = PDC_USART0;
  4007dc:	4b09      	ldr	r3, [pc, #36]	; (400804 <usart_get_pdc_base+0x3c>)
  4007de:	60fb      	str	r3, [r7, #12]
		return p_pdc_base;
  4007e0:	68fb      	ldr	r3, [r7, #12]
  4007e2:	e008      	b.n	4007f6 <usart_get_pdc_base+0x2e>
	}
#endif
#ifdef PDC_USART1
	else if (p_usart == USART1) {
  4007e4:	687b      	ldr	r3, [r7, #4]
  4007e6:	4a08      	ldr	r2, [pc, #32]	; (400808 <usart_get_pdc_base+0x40>)
  4007e8:	4293      	cmp	r3, r2
  4007ea:	d103      	bne.n	4007f4 <usart_get_pdc_base+0x2c>
		p_pdc_base = PDC_USART1;
  4007ec:	4b07      	ldr	r3, [pc, #28]	; (40080c <usart_get_pdc_base+0x44>)
  4007ee:	60fb      	str	r3, [r7, #12]
		return p_pdc_base;
  4007f0:	68fb      	ldr	r3, [r7, #12]
  4007f2:	e000      	b.n	4007f6 <usart_get_pdc_base+0x2e>
		p_pdc_base = PDC_USART7;
		return p_pdc_base;
	}
#endif

	return p_pdc_base;
  4007f4:	68fb      	ldr	r3, [r7, #12]
}
  4007f6:	4618      	mov	r0, r3
  4007f8:	3714      	adds	r7, #20
  4007fa:	46bd      	mov	sp, r7
  4007fc:	bc80      	pop	{r7}
  4007fe:	4770      	bx	lr
  400800:	40024000 	.word	0x40024000
  400804:	40024100 	.word	0x40024100
  400808:	40028000 	.word	0x40028000
  40080c:	40028100 	.word	0x40028100

00400810 <usart_disable_writeprotect>:
 * \brief Disable write protect of USART registers.
 *
 * \param p_usart Pointer to a USART instance.
 */
void usart_disable_writeprotect(Usart *p_usart)
{
  400810:	b480      	push	{r7}
  400812:	b083      	sub	sp, #12
  400814:	af00      	add	r7, sp, #0
  400816:	6078      	str	r0, [r7, #4]
	p_usart->US_WPMR = US_WPMR_WPKEY_PASSWD;
  400818:	687b      	ldr	r3, [r7, #4]
  40081a:	4a04      	ldr	r2, [pc, #16]	; (40082c <usart_disable_writeprotect+0x1c>)
  40081c:	f8c3 20e4 	str.w	r2, [r3, #228]	; 0xe4
}
  400820:	bf00      	nop
  400822:	370c      	adds	r7, #12
  400824:	46bd      	mov	sp, r7
  400826:	bc80      	pop	{r7}
  400828:	4770      	bx	lr
  40082a:	bf00      	nop
  40082c:	55534100 	.word	0x55534100

00400830 <ParseMbusPkt>:
//Write function pointer
void (*writeFunc)(uint16_t *mbusBuff, uint8_t regAddr, uint8_t len);

/* Modbus stack parser function */
void ParseMbusPkt(uint8_t slaveAddr, uint8_t *buff, uint8_t len, uint8_t *respBuff, uint8_t *respLen)
{
  400830:	b580      	push	{r7, lr}
  400832:	b08a      	sub	sp, #40	; 0x28
  400834:	af00      	add	r7, sp, #0
  400836:	60b9      	str	r1, [r7, #8]
  400838:	607b      	str	r3, [r7, #4]
  40083a:	4603      	mov	r3, r0
  40083c:	73fb      	strb	r3, [r7, #15]
  40083e:	4613      	mov	r3, r2
  400840:	73bb      	strb	r3, [r7, #14]
	 uint16_t crc = 0, recvCrc = 0;
  400842:	2300      	movs	r3, #0
  400844:	83fb      	strh	r3, [r7, #30]
  400846:	2300      	movs	r3, #0
  400848:	83bb      	strh	r3, [r7, #28]
	 uint16_t regAddr = 0, numReg = 0;
  40084a:	2300      	movs	r3, #0
  40084c:	837b      	strh	r3, [r7, #26]
  40084e:	2300      	movs	r3, #0
  400850:	833b      	strh	r3, [r7, #24]
	 uint16_t regVal = 0;
  400852:	2300      	movs	r3, #0
  400854:	84fb      	strh	r3, [r7, #38]	; 0x26
	 uint8_t fCode = 0, genErrRsp = 0;
  400856:	2300      	movs	r3, #0
  400858:	75fb      	strb	r3, [r7, #23]
  40085a:	2300      	movs	r3, #0
  40085c:	f887 3025 	strb.w	r3, [r7, #37]	; 0x25
	 uint8_t expFuncCode = 0, expCode = 0;
  400860:	2300      	movs	r3, #0
  400862:	f887 3024 	strb.w	r3, [r7, #36]	; 0x24
  400866:	2300      	movs	r3, #0
  400868:	f887 3023 	strb.w	r3, [r7, #35]	; 0x23
	 uint8_t i = 0, ind = 0;
  40086c:	2300      	movs	r3, #0
  40086e:	f887 3022 	strb.w	r3, [r7, #34]	; 0x22
  400872:	2300      	movs	r3, #0
  400874:	f887 3021 	strb.w	r3, [r7, #33]	; 0x21
	 
	 /* Self Addr recvd or Broadcast Addr = 0 recvd */
	 if(buff[0]==slaveAddr||buff[0]==0)
  400878:	68bb      	ldr	r3, [r7, #8]
  40087a:	781b      	ldrb	r3, [r3, #0]
  40087c:	7bfa      	ldrb	r2, [r7, #15]
  40087e:	429a      	cmp	r2, r3
  400880:	d004      	beq.n	40088c <ParseMbusPkt+0x5c>
  400882:	68bb      	ldr	r3, [r7, #8]
  400884:	781b      	ldrb	r3, [r3, #0]
  400886:	2b00      	cmp	r3, #0
  400888:	f040 81fb 	bne.w	400c82 <ParseMbusPkt+0x452>
	 {
		 /* Calc CRC */
		 recvCrc = (((uint16_t)buff[len-1])<<8)|buff[len-2];
  40088c:	7bbb      	ldrb	r3, [r7, #14]
  40088e:	3b01      	subs	r3, #1
  400890:	68ba      	ldr	r2, [r7, #8]
  400892:	4413      	add	r3, r2
  400894:	781b      	ldrb	r3, [r3, #0]
  400896:	021b      	lsls	r3, r3, #8
  400898:	b21a      	sxth	r2, r3
  40089a:	7bbb      	ldrb	r3, [r7, #14]
  40089c:	3b02      	subs	r3, #2
  40089e:	68b9      	ldr	r1, [r7, #8]
  4008a0:	440b      	add	r3, r1
  4008a2:	781b      	ldrb	r3, [r3, #0]
  4008a4:	b21b      	sxth	r3, r3
  4008a6:	4313      	orrs	r3, r2
  4008a8:	b21b      	sxth	r3, r3
  4008aa:	83bb      	strh	r3, [r7, #28]
		 crc = calcCRC(buff,len-2);
  4008ac:	7bbb      	ldrb	r3, [r7, #14]
  4008ae:	3b02      	subs	r3, #2
  4008b0:	b2db      	uxtb	r3, r3
  4008b2:	4619      	mov	r1, r3
  4008b4:	68b8      	ldr	r0, [r7, #8]
  4008b6:	4b90      	ldr	r3, [pc, #576]	; (400af8 <ParseMbusPkt+0x2c8>)
  4008b8:	4798      	blx	r3
  4008ba:	4603      	mov	r3, r0
  4008bc:	83fb      	strh	r3, [r7, #30]
		 /* If CRC Matched */
		 if(crc==recvCrc)
  4008be:	8bfa      	ldrh	r2, [r7, #30]
  4008c0:	8bbb      	ldrh	r3, [r7, #28]
  4008c2:	429a      	cmp	r2, r3
  4008c4:	f040 81e0 	bne.w	400c88 <ParseMbusPkt+0x458>
		 {
			 /* Function Code Extraction */
			 fCode = buff[1];
  4008c8:	68bb      	ldr	r3, [r7, #8]
  4008ca:	785b      	ldrb	r3, [r3, #1]
  4008cc:	75fb      	strb	r3, [r7, #23]
			 switch(fCode)
  4008ce:	7dfb      	ldrb	r3, [r7, #23]
  4008d0:	2b06      	cmp	r3, #6
  4008d2:	f000 80a9 	beq.w	400a28 <ParseMbusPkt+0x1f8>
  4008d6:	2b10      	cmp	r3, #16
  4008d8:	f000 8114 	beq.w	400b04 <ParseMbusPkt+0x2d4>
  4008dc:	2b03      	cmp	r3, #3
  4008de:	f040 81c2 	bne.w	400c66 <ParseMbusPkt+0x436>
			 {
				 /* Read Analog Reg Func Code Recvd */
				 case 0x03:
				 numReg = (((uint16_t)buff[4])<<8)|buff[5];
  4008e2:	68bb      	ldr	r3, [r7, #8]
  4008e4:	3304      	adds	r3, #4
  4008e6:	781b      	ldrb	r3, [r3, #0]
  4008e8:	021b      	lsls	r3, r3, #8
  4008ea:	b21a      	sxth	r2, r3
  4008ec:	68bb      	ldr	r3, [r7, #8]
  4008ee:	3305      	adds	r3, #5
  4008f0:	781b      	ldrb	r3, [r3, #0]
  4008f2:	b21b      	sxth	r3, r3
  4008f4:	4313      	orrs	r3, r2
  4008f6:	b21b      	sxth	r3, r3
  4008f8:	833b      	strh	r3, [r7, #24]
				 /* 0x0001<= If Qty of Regs <= 0x007D */
				 if(numReg>=0x0001&&numReg<=0x007D)
  4008fa:	8b3b      	ldrh	r3, [r7, #24]
  4008fc:	2b00      	cmp	r3, #0
  4008fe:	f000 8088 	beq.w	400a12 <ParseMbusPkt+0x1e2>
  400902:	8b3b      	ldrh	r3, [r7, #24]
  400904:	2b7d      	cmp	r3, #125	; 0x7d
  400906:	f200 8084 	bhi.w	400a12 <ParseMbusPkt+0x1e2>
				 {
					 regAddr = (((uint16_t)buff[2])<<8)|(buff[3]);
  40090a:	68bb      	ldr	r3, [r7, #8]
  40090c:	3302      	adds	r3, #2
  40090e:	781b      	ldrb	r3, [r3, #0]
  400910:	021b      	lsls	r3, r3, #8
  400912:	b21a      	sxth	r2, r3
  400914:	68bb      	ldr	r3, [r7, #8]
  400916:	3303      	adds	r3, #3
  400918:	781b      	ldrb	r3, [r3, #0]
  40091a:	b21b      	sxth	r3, r3
  40091c:	4313      	orrs	r3, r2
  40091e:	b21b      	sxth	r3, r3
  400920:	837b      	strh	r3, [r7, #26]
					 /* Starting Addr == OK && Starting Addr + Qty of Regs == OK */
					 if((regAddr+numReg) <= MBUS_MAX_REGS)
  400922:	8b7a      	ldrh	r2, [r7, #26]
  400924:	8b3b      	ldrh	r3, [r7, #24]
  400926:	4413      	add	r3, r2
  400928:	2b0c      	cmp	r3, #12
  40092a:	dc68      	bgt.n	4009fe <ParseMbusPkt+0x1ce>
					 {
						 /* Process Read Reg Req */
						 /* Gen Valid Resp */
						 respBuff[0] = slaveAddr;
  40092c:	687b      	ldr	r3, [r7, #4]
  40092e:	7bfa      	ldrb	r2, [r7, #15]
  400930:	701a      	strb	r2, [r3, #0]
						 respBuff[1] = 0x03;
  400932:	687b      	ldr	r3, [r7, #4]
  400934:	3301      	adds	r3, #1
  400936:	2203      	movs	r2, #3
  400938:	701a      	strb	r2, [r3, #0]
						 respBuff[2] = (numReg *2); //No of Data Bytes
  40093a:	687b      	ldr	r3, [r7, #4]
  40093c:	3302      	adds	r3, #2
  40093e:	8b3a      	ldrh	r2, [r7, #24]
  400940:	b2d2      	uxtb	r2, r2
  400942:	0052      	lsls	r2, r2, #1
  400944:	b2d2      	uxtb	r2, r2
  400946:	701a      	strb	r2, [r3, #0]
						 
						 i = 3;
  400948:	2303      	movs	r3, #3
  40094a:	f887 3022 	strb.w	r3, [r7, #34]	; 0x22
						 for(ind = 0; ind < numReg; ind++)
  40094e:	2300      	movs	r3, #0
  400950:	f887 3021 	strb.w	r3, [r7, #33]	; 0x21
  400954:	e028      	b.n	4009a8 <ParseMbusPkt+0x178>
						 {
							 respBuff[i++] = (mBusRegs[regAddr+ind]>>8);
  400956:	f897 3022 	ldrb.w	r3, [r7, #34]	; 0x22
  40095a:	1c5a      	adds	r2, r3, #1
  40095c:	f887 2022 	strb.w	r2, [r7, #34]	; 0x22
  400960:	461a      	mov	r2, r3
  400962:	687b      	ldr	r3, [r7, #4]
  400964:	4413      	add	r3, r2
  400966:	8b79      	ldrh	r1, [r7, #26]
  400968:	f897 2021 	ldrb.w	r2, [r7, #33]	; 0x21
  40096c:	440a      	add	r2, r1
  40096e:	4963      	ldr	r1, [pc, #396]	; (400afc <ParseMbusPkt+0x2cc>)
  400970:	f831 2012 	ldrh.w	r2, [r1, r2, lsl #1]
  400974:	0a12      	lsrs	r2, r2, #8
  400976:	b292      	uxth	r2, r2
  400978:	b2d2      	uxtb	r2, r2
  40097a:	701a      	strb	r2, [r3, #0]
							 respBuff[i++] = (mBusRegs[regAddr+ind]&0x00FF);
  40097c:	f897 3022 	ldrb.w	r3, [r7, #34]	; 0x22
  400980:	1c5a      	adds	r2, r3, #1
  400982:	f887 2022 	strb.w	r2, [r7, #34]	; 0x22
  400986:	461a      	mov	r2, r3
  400988:	687b      	ldr	r3, [r7, #4]
  40098a:	4413      	add	r3, r2
  40098c:	8b79      	ldrh	r1, [r7, #26]
  40098e:	f897 2021 	ldrb.w	r2, [r7, #33]	; 0x21
  400992:	440a      	add	r2, r1
  400994:	4959      	ldr	r1, [pc, #356]	; (400afc <ParseMbusPkt+0x2cc>)
  400996:	f831 2012 	ldrh.w	r2, [r1, r2, lsl #1]
  40099a:	b2d2      	uxtb	r2, r2
  40099c:	701a      	strb	r2, [r3, #0]
						 respBuff[0] = slaveAddr;
						 respBuff[1] = 0x03;
						 respBuff[2] = (numReg *2); //No of Data Bytes
						 
						 i = 3;
						 for(ind = 0; ind < numReg; ind++)
  40099e:	f897 3021 	ldrb.w	r3, [r7, #33]	; 0x21
  4009a2:	3301      	adds	r3, #1
  4009a4:	f887 3021 	strb.w	r3, [r7, #33]	; 0x21
  4009a8:	f897 3021 	ldrb.w	r3, [r7, #33]	; 0x21
  4009ac:	b29b      	uxth	r3, r3
  4009ae:	8b3a      	ldrh	r2, [r7, #24]
  4009b0:	429a      	cmp	r2, r3
  4009b2:	d8d0      	bhi.n	400956 <ParseMbusPkt+0x126>
						 {
							 respBuff[i++] = (mBusRegs[regAddr+ind]>>8);
							 respBuff[i++] = (mBusRegs[regAddr+ind]&0x00FF);
						 }
						 crc = calcCRC(respBuff, i);
  4009b4:	f897 3022 	ldrb.w	r3, [r7, #34]	; 0x22
  4009b8:	4619      	mov	r1, r3
  4009ba:	6878      	ldr	r0, [r7, #4]
  4009bc:	4b4e      	ldr	r3, [pc, #312]	; (400af8 <ParseMbusPkt+0x2c8>)
  4009be:	4798      	blx	r3
  4009c0:	4603      	mov	r3, r0
  4009c2:	83fb      	strh	r3, [r7, #30]
						 respBuff[i++] = (crc&0x00FF);
  4009c4:	f897 3022 	ldrb.w	r3, [r7, #34]	; 0x22
  4009c8:	1c5a      	adds	r2, r3, #1
  4009ca:	f887 2022 	strb.w	r2, [r7, #34]	; 0x22
  4009ce:	461a      	mov	r2, r3
  4009d0:	687b      	ldr	r3, [r7, #4]
  4009d2:	4413      	add	r3, r2
  4009d4:	8bfa      	ldrh	r2, [r7, #30]
  4009d6:	b2d2      	uxtb	r2, r2
  4009d8:	701a      	strb	r2, [r3, #0]
						 respBuff[i++] = (crc>>8);
  4009da:	f897 3022 	ldrb.w	r3, [r7, #34]	; 0x22
  4009de:	1c5a      	adds	r2, r3, #1
  4009e0:	f887 2022 	strb.w	r2, [r7, #34]	; 0x22
  4009e4:	461a      	mov	r2, r3
  4009e6:	687b      	ldr	r3, [r7, #4]
  4009e8:	4413      	add	r3, r2
  4009ea:	8bfa      	ldrh	r2, [r7, #30]
  4009ec:	0a12      	lsrs	r2, r2, #8
  4009ee:	b292      	uxth	r2, r2
  4009f0:	b2d2      	uxtb	r2, r2
  4009f2:	701a      	strb	r2, [r3, #0]
						 *respLen = i;
  4009f4:	6b3b      	ldr	r3, [r7, #48]	; 0x30
  4009f6:	f897 2022 	ldrb.w	r2, [r7, #34]	; 0x22
  4009fa:	701a      	strb	r2, [r3, #0]
				 /* 0x0001<= If Qty of Regs <= 0x007D */
				 if(numReg>=0x0001&&numReg<=0x007D)
				 {
					 regAddr = (((uint16_t)buff[2])<<8)|(buff[3]);
					 /* Starting Addr == OK && Starting Addr + Qty of Regs == OK */
					 if((regAddr+numReg) <= MBUS_MAX_REGS)
  4009fc:	e013      	b.n	400a26 <ParseMbusPkt+0x1f6>
						 *respLen = i;
					 }
					 else
					 {
						 /* Error code = 0x02 */
						 genErrRsp = 1;
  4009fe:	2301      	movs	r3, #1
  400a00:	f887 3025 	strb.w	r3, [r7, #37]	; 0x25
						 expFuncCode = 0x83;
  400a04:	2383      	movs	r3, #131	; 0x83
  400a06:	f887 3024 	strb.w	r3, [r7, #36]	; 0x24
						 expCode = 0x02;
  400a0a:	2302      	movs	r3, #2
  400a0c:	f887 3023 	strb.w	r3, [r7, #35]	; 0x23
				 /* 0x0001<= If Qty of Regs <= 0x007D */
				 if(numReg>=0x0001&&numReg<=0x007D)
				 {
					 regAddr = (((uint16_t)buff[2])<<8)|(buff[3]);
					 /* Starting Addr == OK && Starting Addr + Qty of Regs == OK */
					 if((regAddr+numReg) <= MBUS_MAX_REGS)
  400a10:	e009      	b.n	400a26 <ParseMbusPkt+0x1f6>
					 }
				 }
				 else
				 {
					 /* Error Code 0x03 */
					 genErrRsp = 1;
  400a12:	2301      	movs	r3, #1
  400a14:	f887 3025 	strb.w	r3, [r7, #37]	; 0x25
					 expFuncCode = 0x83;
  400a18:	2383      	movs	r3, #131	; 0x83
  400a1a:	f887 3024 	strb.w	r3, [r7, #36]	; 0x24
					 expCode = 0x03;
  400a1e:	2303      	movs	r3, #3
  400a20:	f887 3023 	strb.w	r3, [r7, #35]	; 0x23
				 }
				 break;
  400a24:	e12c      	b.n	400c80 <ParseMbusPkt+0x450>
  400a26:	e12b      	b.n	400c80 <ParseMbusPkt+0x450>
				 /* Write Single Analog Reg */
				 case 0x06:
				 /* Output Value = 0x0000 or 0xFF00 */
				 regVal = (((uint16_t)buff[4])<<8)|(buff[5]);
  400a28:	68bb      	ldr	r3, [r7, #8]
  400a2a:	3304      	adds	r3, #4
  400a2c:	781b      	ldrb	r3, [r3, #0]
  400a2e:	021b      	lsls	r3, r3, #8
  400a30:	b21a      	sxth	r2, r3
  400a32:	68bb      	ldr	r3, [r7, #8]
  400a34:	3305      	adds	r3, #5
  400a36:	781b      	ldrb	r3, [r3, #0]
  400a38:	b21b      	sxth	r3, r3
  400a3a:	4313      	orrs	r3, r2
  400a3c:	b21b      	sxth	r3, r3
  400a3e:	84fb      	strh	r3, [r7, #38]	; 0x26
				 if(1)
				 {
					 /* Output Address = OK */
					 regAddr = (((uint16_t)buff[2])<<8)|(buff[3]);
  400a40:	68bb      	ldr	r3, [r7, #8]
  400a42:	3302      	adds	r3, #2
  400a44:	781b      	ldrb	r3, [r3, #0]
  400a46:	021b      	lsls	r3, r3, #8
  400a48:	b21a      	sxth	r2, r3
  400a4a:	68bb      	ldr	r3, [r7, #8]
  400a4c:	3303      	adds	r3, #3
  400a4e:	781b      	ldrb	r3, [r3, #0]
  400a50:	b21b      	sxth	r3, r3
  400a52:	4313      	orrs	r3, r2
  400a54:	b21b      	sxth	r3, r3
  400a56:	837b      	strh	r3, [r7, #26]
					 if(regAddr <= MBUS_MAX_REGS)
  400a58:	8b7b      	ldrh	r3, [r7, #26]
  400a5a:	2b0c      	cmp	r3, #12
  400a5c:	d841      	bhi.n	400ae2 <ParseMbusPkt+0x2b2>
					 {
						 /* Gen Valid Mbus Resp */
						 mBusRegs[regAddr] = regVal;
  400a5e:	8b7b      	ldrh	r3, [r7, #26]
  400a60:	4926      	ldr	r1, [pc, #152]	; (400afc <ParseMbusPkt+0x2cc>)
  400a62:	8cfa      	ldrh	r2, [r7, #38]	; 0x26
  400a64:	f821 2013 	strh.w	r2, [r1, r3, lsl #1]
						 /* Success Error Code */
						 respBuff[0] = slaveAddr;
  400a68:	687b      	ldr	r3, [r7, #4]
  400a6a:	7bfa      	ldrb	r2, [r7, #15]
  400a6c:	701a      	strb	r2, [r3, #0]
						 respBuff[1] = 0x06;
  400a6e:	687b      	ldr	r3, [r7, #4]
  400a70:	3301      	adds	r3, #1
  400a72:	2206      	movs	r2, #6
  400a74:	701a      	strb	r2, [r3, #0]
						 respBuff[2] = buff[2];
  400a76:	687b      	ldr	r3, [r7, #4]
  400a78:	3302      	adds	r3, #2
  400a7a:	68ba      	ldr	r2, [r7, #8]
  400a7c:	7892      	ldrb	r2, [r2, #2]
  400a7e:	701a      	strb	r2, [r3, #0]
						 respBuff[3] = buff[3];
  400a80:	687b      	ldr	r3, [r7, #4]
  400a82:	3303      	adds	r3, #3
  400a84:	68ba      	ldr	r2, [r7, #8]
  400a86:	78d2      	ldrb	r2, [r2, #3]
  400a88:	701a      	strb	r2, [r3, #0]
						 respBuff[4] = buff[4];
  400a8a:	687b      	ldr	r3, [r7, #4]
  400a8c:	3304      	adds	r3, #4
  400a8e:	68ba      	ldr	r2, [r7, #8]
  400a90:	7912      	ldrb	r2, [r2, #4]
  400a92:	701a      	strb	r2, [r3, #0]
						 respBuff[5] = buff[5];
  400a94:	687b      	ldr	r3, [r7, #4]
  400a96:	3305      	adds	r3, #5
  400a98:	68ba      	ldr	r2, [r7, #8]
  400a9a:	7952      	ldrb	r2, [r2, #5]
  400a9c:	701a      	strb	r2, [r3, #0]
						 crc = calcCRC(respBuff, 6);
  400a9e:	2106      	movs	r1, #6
  400aa0:	6878      	ldr	r0, [r7, #4]
  400aa2:	4b15      	ldr	r3, [pc, #84]	; (400af8 <ParseMbusPkt+0x2c8>)
  400aa4:	4798      	blx	r3
  400aa6:	4603      	mov	r3, r0
  400aa8:	83fb      	strh	r3, [r7, #30]
						 respBuff[6] = (crc&0x00FF);
  400aaa:	687b      	ldr	r3, [r7, #4]
  400aac:	3306      	adds	r3, #6
  400aae:	8bfa      	ldrh	r2, [r7, #30]
  400ab0:	b2d2      	uxtb	r2, r2
  400ab2:	701a      	strb	r2, [r3, #0]
						 respBuff[7] = (crc>>8);
  400ab4:	687b      	ldr	r3, [r7, #4]
  400ab6:	3307      	adds	r3, #7
  400ab8:	8bfa      	ldrh	r2, [r7, #30]
  400aba:	0a12      	lsrs	r2, r2, #8
  400abc:	b292      	uxth	r2, r2
  400abe:	b2d2      	uxtb	r2, r2
  400ac0:	701a      	strb	r2, [r3, #0]
						 *respLen = 8;
  400ac2:	6b3b      	ldr	r3, [r7, #48]	; 0x30
  400ac4:	2208      	movs	r2, #8
  400ac6:	701a      	strb	r2, [r3, #0]
						 
						 /* Process Write Reg Req */
						 if(writeFunc!=NULL)
  400ac8:	4b0d      	ldr	r3, [pc, #52]	; (400b00 <ParseMbusPkt+0x2d0>)
  400aca:	681b      	ldr	r3, [r3, #0]
  400acc:	2b00      	cmp	r3, #0
  400ace:	f000 80d6 	beq.w	400c7e <ParseMbusPkt+0x44e>
							writeFunc(mBusRegs,regAddr,1);
  400ad2:	4b0b      	ldr	r3, [pc, #44]	; (400b00 <ParseMbusPkt+0x2d0>)
  400ad4:	681b      	ldr	r3, [r3, #0]
  400ad6:	8b7a      	ldrh	r2, [r7, #26]
  400ad8:	b2d1      	uxtb	r1, r2
  400ada:	2201      	movs	r2, #1
  400adc:	4807      	ldr	r0, [pc, #28]	; (400afc <ParseMbusPkt+0x2cc>)
  400ade:	4798      	blx	r3
					 /* Illegal Data Value Error */
					 genErrRsp = 1;
					 expFuncCode = 0x86;
					 expCode = 0x03;
				 }
				 break;
  400ae0:	e0cd      	b.n	400c7e <ParseMbusPkt+0x44e>
							writeFunc(mBusRegs,regAddr,1);
					 }
					 else
					 {
						 /* Illegal Data Address Error */
						 genErrRsp = 1;
  400ae2:	2301      	movs	r3, #1
  400ae4:	f887 3025 	strb.w	r3, [r7, #37]	; 0x25
						 expFuncCode = 0x86;
  400ae8:	2386      	movs	r3, #134	; 0x86
  400aea:	f887 3024 	strb.w	r3, [r7, #36]	; 0x24
						 expCode = 0x02;
  400aee:	2302      	movs	r3, #2
  400af0:	f887 3023 	strb.w	r3, [r7, #35]	; 0x23
					 /* Illegal Data Value Error */
					 genErrRsp = 1;
					 expFuncCode = 0x86;
					 expCode = 0x03;
				 }
				 break;
  400af4:	e0c3      	b.n	400c7e <ParseMbusPkt+0x44e>
  400af6:	bf00      	nop
  400af8:	00400ce9 	.word	0x00400ce9
  400afc:	20000458 	.word	0x20000458
  400b00:	200004e8 	.word	0x200004e8
				 case 0x10: /* Write Mul Register */
				 numReg = (((uint16_t)buff[4])<<8)|buff[5];
  400b04:	68bb      	ldr	r3, [r7, #8]
  400b06:	3304      	adds	r3, #4
  400b08:	781b      	ldrb	r3, [r3, #0]
  400b0a:	021b      	lsls	r3, r3, #8
  400b0c:	b21a      	sxth	r2, r3
  400b0e:	68bb      	ldr	r3, [r7, #8]
  400b10:	3305      	adds	r3, #5
  400b12:	781b      	ldrb	r3, [r3, #0]
  400b14:	b21b      	sxth	r3, r3
  400b16:	4313      	orrs	r3, r2
  400b18:	b21b      	sxth	r3, r3
  400b1a:	833b      	strh	r3, [r7, #24]
				 /* 0x0001<= If Qty of Regs <= 0x007D */
				 if(numReg>=0x0001&&numReg<=0x007D)
  400b1c:	8b3b      	ldrh	r3, [r7, #24]
  400b1e:	2b00      	cmp	r3, #0
  400b20:	f000 8096 	beq.w	400c50 <ParseMbusPkt+0x420>
  400b24:	8b3b      	ldrh	r3, [r7, #24]
  400b26:	2b7d      	cmp	r3, #125	; 0x7d
  400b28:	f200 8092 	bhi.w	400c50 <ParseMbusPkt+0x420>
				 {
					 regAddr = (((uint16_t)buff[2])<<8)|(buff[3]);
  400b2c:	68bb      	ldr	r3, [r7, #8]
  400b2e:	3302      	adds	r3, #2
  400b30:	781b      	ldrb	r3, [r3, #0]
  400b32:	021b      	lsls	r3, r3, #8
  400b34:	b21a      	sxth	r2, r3
  400b36:	68bb      	ldr	r3, [r7, #8]
  400b38:	3303      	adds	r3, #3
  400b3a:	781b      	ldrb	r3, [r3, #0]
  400b3c:	b21b      	sxth	r3, r3
  400b3e:	4313      	orrs	r3, r2
  400b40:	b21b      	sxth	r3, r3
  400b42:	837b      	strh	r3, [r7, #26]
					 /* Starting Addr == OK && Starting Addr + Qty of Regs == OK */
					 if((regAddr+numReg) <= MBUS_MAX_REGS)
  400b44:	8b7a      	ldrh	r2, [r7, #26]
  400b46:	8b3b      	ldrh	r3, [r7, #24]
  400b48:	4413      	add	r3, r2
  400b4a:	2b0c      	cmp	r3, #12
  400b4c:	dc76      	bgt.n	400c3c <ParseMbusPkt+0x40c>
					 {
						 /* Gen Valid Resp */
						 respBuff[0] = slaveAddr;
  400b4e:	687b      	ldr	r3, [r7, #4]
  400b50:	7bfa      	ldrb	r2, [r7, #15]
  400b52:	701a      	strb	r2, [r3, #0]
						 respBuff[1] = 0x10;
  400b54:	687b      	ldr	r3, [r7, #4]
  400b56:	3301      	adds	r3, #1
  400b58:	2210      	movs	r2, #16
  400b5a:	701a      	strb	r2, [r3, #0]
						 respBuff[2] = buff[2];
  400b5c:	687b      	ldr	r3, [r7, #4]
  400b5e:	3302      	adds	r3, #2
  400b60:	68ba      	ldr	r2, [r7, #8]
  400b62:	7892      	ldrb	r2, [r2, #2]
  400b64:	701a      	strb	r2, [r3, #0]
						 respBuff[3] = buff[3];
  400b66:	687b      	ldr	r3, [r7, #4]
  400b68:	3303      	adds	r3, #3
  400b6a:	68ba      	ldr	r2, [r7, #8]
  400b6c:	78d2      	ldrb	r2, [r2, #3]
  400b6e:	701a      	strb	r2, [r3, #0]
						 respBuff[4] = buff[4];
  400b70:	687b      	ldr	r3, [r7, #4]
  400b72:	3304      	adds	r3, #4
  400b74:	68ba      	ldr	r2, [r7, #8]
  400b76:	7912      	ldrb	r2, [r2, #4]
  400b78:	701a      	strb	r2, [r3, #0]
						 respBuff[5] = buff[5];
  400b7a:	687b      	ldr	r3, [r7, #4]
  400b7c:	3305      	adds	r3, #5
  400b7e:	68ba      	ldr	r2, [r7, #8]
  400b80:	7952      	ldrb	r2, [r2, #5]
  400b82:	701a      	strb	r2, [r3, #0]
						 crc = calcCRC(respBuff, 6);
  400b84:	2106      	movs	r1, #6
  400b86:	6878      	ldr	r0, [r7, #4]
  400b88:	4b54      	ldr	r3, [pc, #336]	; (400cdc <ParseMbusPkt+0x4ac>)
  400b8a:	4798      	blx	r3
  400b8c:	4603      	mov	r3, r0
  400b8e:	83fb      	strh	r3, [r7, #30]
						 respBuff[6] = (crc&0x00FF);
  400b90:	687b      	ldr	r3, [r7, #4]
  400b92:	3306      	adds	r3, #6
  400b94:	8bfa      	ldrh	r2, [r7, #30]
  400b96:	b2d2      	uxtb	r2, r2
  400b98:	701a      	strb	r2, [r3, #0]
						 respBuff[7] = (crc>>8);
  400b9a:	687b      	ldr	r3, [r7, #4]
  400b9c:	3307      	adds	r3, #7
  400b9e:	8bfa      	ldrh	r2, [r7, #30]
  400ba0:	0a12      	lsrs	r2, r2, #8
  400ba2:	b292      	uxth	r2, r2
  400ba4:	b2d2      	uxtb	r2, r2
  400ba6:	701a      	strb	r2, [r3, #0]
						 *respLen = 8;
  400ba8:	6b3b      	ldr	r3, [r7, #48]	; 0x30
  400baa:	2208      	movs	r2, #8
  400bac:	701a      	strb	r2, [r3, #0]
						 
						 /* Byte count */
						 numReg = 7 + buff[6];
  400bae:	68bb      	ldr	r3, [r7, #8]
  400bb0:	3306      	adds	r3, #6
  400bb2:	781b      	ldrb	r3, [r3, #0]
  400bb4:	b29b      	uxth	r3, r3
  400bb6:	3307      	adds	r3, #7
  400bb8:	833b      	strh	r3, [r7, #24]
						 ind = 0;
  400bba:	2300      	movs	r3, #0
  400bbc:	f887 3021 	strb.w	r3, [r7, #33]	; 0x21
						 for(i = 7; i < numReg; i++)
  400bc0:	2307      	movs	r3, #7
  400bc2:	f887 3022 	strb.w	r3, [r7, #34]	; 0x22
  400bc6:	e02a      	b.n	400c1e <ParseMbusPkt+0x3ee>
						 {
							 if(i%2==1)
  400bc8:	f897 3022 	ldrb.w	r3, [r7, #34]	; 0x22
  400bcc:	f003 0301 	and.w	r3, r3, #1
  400bd0:	b2db      	uxtb	r3, r3
  400bd2:	2b00      	cmp	r3, #0
  400bd4:	d008      	beq.n	400be8 <ParseMbusPkt+0x3b8>
							 {
								 regVal = ((uint16_t)buff[i])<<8;
  400bd6:	f897 3022 	ldrb.w	r3, [r7, #34]	; 0x22
  400bda:	68ba      	ldr	r2, [r7, #8]
  400bdc:	4413      	add	r3, r2
  400bde:	781b      	ldrb	r3, [r3, #0]
  400be0:	b29b      	uxth	r3, r3
  400be2:	021b      	lsls	r3, r3, #8
  400be4:	84fb      	strh	r3, [r7, #38]	; 0x26
  400be6:	e015      	b.n	400c14 <ParseMbusPkt+0x3e4>
							 }
							 else
							 {
								 regVal |= buff[i];
  400be8:	f897 3022 	ldrb.w	r3, [r7, #34]	; 0x22
  400bec:	68ba      	ldr	r2, [r7, #8]
  400bee:	4413      	add	r3, r2
  400bf0:	781b      	ldrb	r3, [r3, #0]
  400bf2:	b29a      	uxth	r2, r3
  400bf4:	8cfb      	ldrh	r3, [r7, #38]	; 0x26
  400bf6:	4313      	orrs	r3, r2
  400bf8:	84fb      	strh	r3, [r7, #38]	; 0x26
								 mBusRegs[regAddr+ind] = regVal;
  400bfa:	8b7a      	ldrh	r2, [r7, #26]
  400bfc:	f897 3021 	ldrb.w	r3, [r7, #33]	; 0x21
  400c00:	4413      	add	r3, r2
  400c02:	4937      	ldr	r1, [pc, #220]	; (400ce0 <ParseMbusPkt+0x4b0>)
  400c04:	8cfa      	ldrh	r2, [r7, #38]	; 0x26
  400c06:	f821 2013 	strh.w	r2, [r1, r3, lsl #1]
								 ind ++;
  400c0a:	f897 3021 	ldrb.w	r3, [r7, #33]	; 0x21
  400c0e:	3301      	adds	r3, #1
  400c10:	f887 3021 	strb.w	r3, [r7, #33]	; 0x21
						 *respLen = 8;
						 
						 /* Byte count */
						 numReg = 7 + buff[6];
						 ind = 0;
						 for(i = 7; i < numReg; i++)
  400c14:	f897 3022 	ldrb.w	r3, [r7, #34]	; 0x22
  400c18:	3301      	adds	r3, #1
  400c1a:	f887 3022 	strb.w	r3, [r7, #34]	; 0x22
  400c1e:	f897 3022 	ldrb.w	r3, [r7, #34]	; 0x22
  400c22:	b29b      	uxth	r3, r3
  400c24:	8b3a      	ldrh	r2, [r7, #24]
  400c26:	429a      	cmp	r2, r3
  400c28:	d8ce      	bhi.n	400bc8 <ParseMbusPkt+0x398>
								 mBusRegs[regAddr+ind] = regVal;
								 ind ++;
							 }
						 }
						 /* Process Write Reg Req */
						 writeFunc(mBusRegs,regAddr,ind);
  400c2a:	4b2e      	ldr	r3, [pc, #184]	; (400ce4 <ParseMbusPkt+0x4b4>)
  400c2c:	681b      	ldr	r3, [r3, #0]
  400c2e:	8b7a      	ldrh	r2, [r7, #26]
  400c30:	b2d1      	uxtb	r1, r2
  400c32:	f897 2021 	ldrb.w	r2, [r7, #33]	; 0x21
  400c36:	482a      	ldr	r0, [pc, #168]	; (400ce0 <ParseMbusPkt+0x4b0>)
  400c38:	4798      	blx	r3
				 /* 0x0001<= If Qty of Regs <= 0x007D */
				 if(numReg>=0x0001&&numReg<=0x007D)
				 {
					 regAddr = (((uint16_t)buff[2])<<8)|(buff[3]);
					 /* Starting Addr == OK && Starting Addr + Qty of Regs == OK */
					 if((regAddr+numReg) <= MBUS_MAX_REGS)
  400c3a:	e013      	b.n	400c64 <ParseMbusPkt+0x434>
						 writeFunc(mBusRegs,regAddr,ind);
					 }
					 else
					 {
						 /* Error code = 0x02 */
						 genErrRsp = 1;
  400c3c:	2301      	movs	r3, #1
  400c3e:	f887 3025 	strb.w	r3, [r7, #37]	; 0x25
						 expFuncCode = 0x90;
  400c42:	2390      	movs	r3, #144	; 0x90
  400c44:	f887 3024 	strb.w	r3, [r7, #36]	; 0x24
						 expCode = 0x02;
  400c48:	2302      	movs	r3, #2
  400c4a:	f887 3023 	strb.w	r3, [r7, #35]	; 0x23
				 /* 0x0001<= If Qty of Regs <= 0x007D */
				 if(numReg>=0x0001&&numReg<=0x007D)
				 {
					 regAddr = (((uint16_t)buff[2])<<8)|(buff[3]);
					 /* Starting Addr == OK && Starting Addr + Qty of Regs == OK */
					 if((regAddr+numReg) <= MBUS_MAX_REGS)
  400c4e:	e009      	b.n	400c64 <ParseMbusPkt+0x434>
					 }
				 }
				 else
				 {
					 /* Error Code 0x03 */
					 genErrRsp = 1;
  400c50:	2301      	movs	r3, #1
  400c52:	f887 3025 	strb.w	r3, [r7, #37]	; 0x25
					 expFuncCode = 0x90;
  400c56:	2390      	movs	r3, #144	; 0x90
  400c58:	f887 3024 	strb.w	r3, [r7, #36]	; 0x24
					 expCode = 0x03;
  400c5c:	2303      	movs	r3, #3
  400c5e:	f887 3023 	strb.w	r3, [r7, #35]	; 0x23
				 }
				 break;
  400c62:	e00d      	b.n	400c80 <ParseMbusPkt+0x450>
  400c64:	e00c      	b.n	400c80 <ParseMbusPkt+0x450>
				 default:
				 /* Illegal Function Code Error */
				 /* Set MSB of recvd Function code */
				 /* Error Code 0x01 */
				 expFuncCode = fCode|(1<<7);
  400c66:	7dfb      	ldrb	r3, [r7, #23]
  400c68:	f063 037f 	orn	r3, r3, #127	; 0x7f
  400c6c:	f887 3024 	strb.w	r3, [r7, #36]	; 0x24
				 expCode = 0x01;
  400c70:	2301      	movs	r3, #1
  400c72:	f887 3023 	strb.w	r3, [r7, #35]	; 0x23
				 genErrRsp = 1;
  400c76:	2301      	movs	r3, #1
  400c78:	f887 3025 	strb.w	r3, [r7, #37]	; 0x25
				 break;
  400c7c:	e000      	b.n	400c80 <ParseMbusPkt+0x450>
					 /* Illegal Data Value Error */
					 genErrRsp = 1;
					 expFuncCode = 0x86;
					 expCode = 0x03;
				 }
				 break;
  400c7e:	bf00      	nop
	 {
		 /* Calc CRC */
		 recvCrc = (((uint16_t)buff[len-1])<<8)|buff[len-2];
		 crc = calcCRC(buff,len-2);
		 /* If CRC Matched */
		 if(crc==recvCrc)
  400c80:	e002      	b.n	400c88 <ParseMbusPkt+0x458>
			 }
		 }
	 }
	 else
	 {
		 *respLen = 0;
  400c82:	6b3b      	ldr	r3, [r7, #48]	; 0x30
  400c84:	2200      	movs	r2, #0
  400c86:	701a      	strb	r2, [r3, #0]
	 }
	 
	 if(genErrRsp)
  400c88:	f897 3025 	ldrb.w	r3, [r7, #37]	; 0x25
  400c8c:	2b00      	cmp	r3, #0
  400c8e:	d021      	beq.n	400cd4 <ParseMbusPkt+0x4a4>
	 {
		 respBuff[0] = slaveAddr;
  400c90:	687b      	ldr	r3, [r7, #4]
  400c92:	7bfa      	ldrb	r2, [r7, #15]
  400c94:	701a      	strb	r2, [r3, #0]
		 respBuff[1] = expFuncCode;
  400c96:	687b      	ldr	r3, [r7, #4]
  400c98:	3301      	adds	r3, #1
  400c9a:	f897 2024 	ldrb.w	r2, [r7, #36]	; 0x24
  400c9e:	701a      	strb	r2, [r3, #0]
		 respBuff[2] = expCode;
  400ca0:	687b      	ldr	r3, [r7, #4]
  400ca2:	3302      	adds	r3, #2
  400ca4:	f897 2023 	ldrb.w	r2, [r7, #35]	; 0x23
  400ca8:	701a      	strb	r2, [r3, #0]
		 crc = calcCRC(respBuff, 3);
  400caa:	2103      	movs	r1, #3
  400cac:	6878      	ldr	r0, [r7, #4]
  400cae:	4b0b      	ldr	r3, [pc, #44]	; (400cdc <ParseMbusPkt+0x4ac>)
  400cb0:	4798      	blx	r3
  400cb2:	4603      	mov	r3, r0
  400cb4:	83fb      	strh	r3, [r7, #30]
		 respBuff[3] = (crc&0x00FF);
  400cb6:	687b      	ldr	r3, [r7, #4]
  400cb8:	3303      	adds	r3, #3
  400cba:	8bfa      	ldrh	r2, [r7, #30]
  400cbc:	b2d2      	uxtb	r2, r2
  400cbe:	701a      	strb	r2, [r3, #0]
		 respBuff[4] = (crc>>8);
  400cc0:	687b      	ldr	r3, [r7, #4]
  400cc2:	3304      	adds	r3, #4
  400cc4:	8bfa      	ldrh	r2, [r7, #30]
  400cc6:	0a12      	lsrs	r2, r2, #8
  400cc8:	b292      	uxth	r2, r2
  400cca:	b2d2      	uxtb	r2, r2
  400ccc:	701a      	strb	r2, [r3, #0]
		 *respLen = 5;
  400cce:	6b3b      	ldr	r3, [r7, #48]	; 0x30
  400cd0:	2205      	movs	r2, #5
  400cd2:	701a      	strb	r2, [r3, #0]
	 }
 }
  400cd4:	bf00      	nop
  400cd6:	3728      	adds	r7, #40	; 0x28
  400cd8:	46bd      	mov	sp, r7
  400cda:	bd80      	pop	{r7, pc}
  400cdc:	00400ce9 	.word	0x00400ce9
  400ce0:	20000458 	.word	0x20000458
  400ce4:	200004e8 	.word	0x200004e8

00400ce8 <calcCRC>:

 uint16_t calcCRC(uint8_t *buff, uint8_t len)
 {
  400ce8:	b480      	push	{r7}
  400cea:	b085      	sub	sp, #20
  400cec:	af00      	add	r7, sp, #0
  400cee:	6078      	str	r0, [r7, #4]
  400cf0:	460b      	mov	r3, r1
  400cf2:	70fb      	strb	r3, [r7, #3]
	 uint16_t crcReg = 0xFFFF;
  400cf4:	f64f 73ff 	movw	r3, #65535	; 0xffff
  400cf8:	81fb      	strh	r3, [r7, #14]
	 uint8_t i = 0, j=0;
  400cfa:	2300      	movs	r3, #0
  400cfc:	737b      	strb	r3, [r7, #13]
  400cfe:	2300      	movs	r3, #0
  400d00:	733b      	strb	r3, [r7, #12]

	 for(i=0;i<len;i++)
  400d02:	2300      	movs	r3, #0
  400d04:	737b      	strb	r3, [r7, #13]
  400d06:	e026      	b.n	400d56 <calcCRC+0x6e>
	 {
		 crcReg = crcReg ^ buff[i];
  400d08:	7b7b      	ldrb	r3, [r7, #13]
  400d0a:	687a      	ldr	r2, [r7, #4]
  400d0c:	4413      	add	r3, r2
  400d0e:	781b      	ldrb	r3, [r3, #0]
  400d10:	b29a      	uxth	r2, r3
  400d12:	89fb      	ldrh	r3, [r7, #14]
  400d14:	4053      	eors	r3, r2
  400d16:	81fb      	strh	r3, [r7, #14]
		 for(j=0;j<8;j++)
  400d18:	2300      	movs	r3, #0
  400d1a:	733b      	strb	r3, [r7, #12]
  400d1c:	e015      	b.n	400d4a <calcCRC+0x62>
		 {

			 if(bitIsSet(crcReg,0))
  400d1e:	89fb      	ldrh	r3, [r7, #14]
  400d20:	f003 0301 	and.w	r3, r3, #1
  400d24:	2b00      	cmp	r3, #0
  400d26:	d00a      	beq.n	400d3e <calcCRC+0x56>
			 {
				 crcReg = crcReg >> 1;
  400d28:	89fb      	ldrh	r3, [r7, #14]
  400d2a:	085b      	lsrs	r3, r3, #1
  400d2c:	81fb      	strh	r3, [r7, #14]
				 crcReg = crcReg ^ MBUS_CRC_POLY;
  400d2e:	89fb      	ldrh	r3, [r7, #14]
  400d30:	f483 43bf 	eor.w	r3, r3, #24448	; 0x5f80
  400d34:	f083 037e 	eor.w	r3, r3, #126	; 0x7e
  400d38:	43db      	mvns	r3, r3
  400d3a:	81fb      	strh	r3, [r7, #14]
  400d3c:	e002      	b.n	400d44 <calcCRC+0x5c>
			 }
			 else
			 {
				 crcReg = crcReg >> 1;
  400d3e:	89fb      	ldrh	r3, [r7, #14]
  400d40:	085b      	lsrs	r3, r3, #1
  400d42:	81fb      	strh	r3, [r7, #14]
	 uint8_t i = 0, j=0;

	 for(i=0;i<len;i++)
	 {
		 crcReg = crcReg ^ buff[i];
		 for(j=0;j<8;j++)
  400d44:	7b3b      	ldrb	r3, [r7, #12]
  400d46:	3301      	adds	r3, #1
  400d48:	733b      	strb	r3, [r7, #12]
  400d4a:	7b3b      	ldrb	r3, [r7, #12]
  400d4c:	2b07      	cmp	r3, #7
  400d4e:	d9e6      	bls.n	400d1e <calcCRC+0x36>
 uint16_t calcCRC(uint8_t *buff, uint8_t len)
 {
	 uint16_t crcReg = 0xFFFF;
	 uint8_t i = 0, j=0;

	 for(i=0;i<len;i++)
  400d50:	7b7b      	ldrb	r3, [r7, #13]
  400d52:	3301      	adds	r3, #1
  400d54:	737b      	strb	r3, [r7, #13]
  400d56:	7b7a      	ldrb	r2, [r7, #13]
  400d58:	78fb      	ldrb	r3, [r7, #3]
  400d5a:	429a      	cmp	r2, r3
  400d5c:	d3d4      	bcc.n	400d08 <calcCRC+0x20>
			 {
				 crcReg = crcReg >> 1;
			 }
		 }
	 }
	 return crcReg;
  400d5e:	89fb      	ldrh	r3, [r7, #14]
 }
  400d60:	4618      	mov	r0, r3
  400d62:	3714      	adds	r7, #20
  400d64:	46bd      	mov	sp, r7
  400d66:	bc80      	pop	{r7}
  400d68:	4770      	bx	lr
  400d6a:	bf00      	nop

00400d6c <WriteMCP3425>:
 {
	WriteMCP3425(Port, conf);
 }
 
 void WriteMCP3425(Twi *Port, uint8_t conf)
 {
  400d6c:	b580      	push	{r7, lr}
  400d6e:	b088      	sub	sp, #32
  400d70:	af00      	add	r7, sp, #0
  400d72:	6078      	str	r0, [r7, #4]
  400d74:	460b      	mov	r3, r1
  400d76:	70fb      	strb	r3, [r7, #3]
	twi_packet_t pkt;
	/* Set Device Address */
	pkt.chip = ADDR_MCP3425;
  400d78:	2368      	movs	r3, #104	; 0x68
  400d7a:	773b      	strb	r3, [r7, #28]
	/* No Address Bytes to be clocked */
	pkt.addr_length = 0;
  400d7c:	2300      	movs	r3, #0
  400d7e:	613b      	str	r3, [r7, #16]
	/* Address of data to be transferred */
	pkt.buffer = &conf;
  400d80:	1cfb      	adds	r3, r7, #3
  400d82:	617b      	str	r3, [r7, #20]
	/* No of bytes to transfer */
	pkt.length = 1;
  400d84:	2301      	movs	r3, #1
  400d86:	61bb      	str	r3, [r7, #24]
	twi_master_write(Port, &pkt);
  400d88:	f107 030c 	add.w	r3, r7, #12
  400d8c:	4619      	mov	r1, r3
  400d8e:	6878      	ldr	r0, [r7, #4]
  400d90:	4b02      	ldr	r3, [pc, #8]	; (400d9c <WriteMCP3425+0x30>)
  400d92:	4798      	blx	r3
 }
  400d94:	bf00      	nop
  400d96:	3720      	adds	r7, #32
  400d98:	46bd      	mov	sp, r7
  400d9a:	bd80      	pop	{r7, pc}
  400d9c:	0040040d 	.word	0x0040040d

00400da0 <ReadMCP3425>:

 void ReadMCP3425(Twi * Port, uint8_t *dPkt)
 {
  400da0:	b580      	push	{r7, lr}
  400da2:	b088      	sub	sp, #32
  400da4:	af00      	add	r7, sp, #0
  400da6:	6078      	str	r0, [r7, #4]
  400da8:	6039      	str	r1, [r7, #0]
	twi_packet_t pkt;
	/* Set Device Address */
	pkt.chip = ADDR_MCP3425;
  400daa:	2368      	movs	r3, #104	; 0x68
  400dac:	773b      	strb	r3, [r7, #28]
	/* No Address Bytes to be clocked */
	pkt.addr_length = 0;
  400dae:	2300      	movs	r3, #0
  400db0:	613b      	str	r3, [r7, #16]
	/* Address of buffer where recvd data is to be stored */
	pkt.buffer = dPkt;
  400db2:	683b      	ldr	r3, [r7, #0]
  400db4:	617b      	str	r3, [r7, #20]
	/* No of bytes to read */
	pkt.length = 3;
  400db6:	2303      	movs	r3, #3
  400db8:	61bb      	str	r3, [r7, #24]
	twi_master_read(Port, &pkt);
  400dba:	f107 030c 	add.w	r3, r7, #12
  400dbe:	4619      	mov	r1, r3
  400dc0:	6878      	ldr	r0, [r7, #4]
  400dc2:	4b03      	ldr	r3, [pc, #12]	; (400dd0 <ReadMCP3425+0x30>)
  400dc4:	4798      	blx	r3
 }
  400dc6:	bf00      	nop
  400dc8:	3720      	adds	r7, #32
  400dca:	46bd      	mov	sp, r7
  400dcc:	bd80      	pop	{r7, pc}
  400dce:	bf00      	nop
  400dd0:	00400301 	.word	0x00400301

00400dd4 <osc_get_rate>:

	return 0;
}

static inline uint32_t osc_get_rate(uint32_t ul_id)
{
  400dd4:	b480      	push	{r7}
  400dd6:	b083      	sub	sp, #12
  400dd8:	af00      	add	r7, sp, #0
  400dda:	6078      	str	r0, [r7, #4]
	switch (ul_id) {
  400ddc:	687b      	ldr	r3, [r7, #4]
  400dde:	2b07      	cmp	r3, #7
  400de0:	d825      	bhi.n	400e2e <osc_get_rate+0x5a>
  400de2:	a201      	add	r2, pc, #4	; (adr r2, 400de8 <osc_get_rate+0x14>)
  400de4:	f852 f023 	ldr.w	pc, [r2, r3, lsl #2]
  400de8:	00400e09 	.word	0x00400e09
  400dec:	00400e0f 	.word	0x00400e0f
  400df0:	00400e15 	.word	0x00400e15
  400df4:	00400e1b 	.word	0x00400e1b
  400df8:	00400e1f 	.word	0x00400e1f
  400dfc:	00400e23 	.word	0x00400e23
  400e00:	00400e27 	.word	0x00400e27
  400e04:	00400e2b 	.word	0x00400e2b
	case OSC_SLCK_32K_RC:
		return OSC_SLCK_32K_RC_HZ;
  400e08:	f44f 43fa 	mov.w	r3, #32000	; 0x7d00
  400e0c:	e010      	b.n	400e30 <osc_get_rate+0x5c>

	case OSC_SLCK_32K_XTAL:
		return BOARD_FREQ_SLCK_XTAL;
  400e0e:	f44f 4300 	mov.w	r3, #32768	; 0x8000
  400e12:	e00d      	b.n	400e30 <osc_get_rate+0x5c>

	case OSC_SLCK_32K_BYPASS:
		return BOARD_FREQ_SLCK_BYPASS;
  400e14:	f44f 4300 	mov.w	r3, #32768	; 0x8000
  400e18:	e00a      	b.n	400e30 <osc_get_rate+0x5c>

	case OSC_MAINCK_4M_RC:
		return OSC_MAINCK_4M_RC_HZ;
  400e1a:	4b08      	ldr	r3, [pc, #32]	; (400e3c <osc_get_rate+0x68>)
  400e1c:	e008      	b.n	400e30 <osc_get_rate+0x5c>

	case OSC_MAINCK_8M_RC:
		return OSC_MAINCK_8M_RC_HZ;
  400e1e:	4b08      	ldr	r3, [pc, #32]	; (400e40 <osc_get_rate+0x6c>)
  400e20:	e006      	b.n	400e30 <osc_get_rate+0x5c>

	case OSC_MAINCK_12M_RC:
		return OSC_MAINCK_12M_RC_HZ;
  400e22:	4b08      	ldr	r3, [pc, #32]	; (400e44 <osc_get_rate+0x70>)
  400e24:	e004      	b.n	400e30 <osc_get_rate+0x5c>

	case OSC_MAINCK_XTAL:
		return BOARD_FREQ_MAINCK_XTAL;
  400e26:	4b07      	ldr	r3, [pc, #28]	; (400e44 <osc_get_rate+0x70>)
  400e28:	e002      	b.n	400e30 <osc_get_rate+0x5c>

	case OSC_MAINCK_BYPASS:
		return BOARD_FREQ_MAINCK_BYPASS;
  400e2a:	4b06      	ldr	r3, [pc, #24]	; (400e44 <osc_get_rate+0x70>)
  400e2c:	e000      	b.n	400e30 <osc_get_rate+0x5c>
	}

	return 0;
  400e2e:	2300      	movs	r3, #0
}
  400e30:	4618      	mov	r0, r3
  400e32:	370c      	adds	r7, #12
  400e34:	46bd      	mov	sp, r7
  400e36:	bc80      	pop	{r7}
  400e38:	4770      	bx	lr
  400e3a:	bf00      	nop
  400e3c:	003d0900 	.word	0x003d0900
  400e40:	007a1200 	.word	0x007a1200
  400e44:	00b71b00 	.word	0x00b71b00

00400e48 <sysclk_get_main_hz>:
 */
#if (defined CONFIG_SYSCLK_DEFAULT_RETURNS_SLOW_OSC)
extern uint32_t sysclk_initialized;
#endif
static inline uint32_t sysclk_get_main_hz(void)
{
  400e48:	b580      	push	{r7, lr}
  400e4a:	af00      	add	r7, sp, #0
	} else if (CONFIG_SYSCLK_SOURCE == SYSCLK_SRC_MAINCK_BYPASS) {
		return OSC_MAINCK_BYPASS_HZ;
	}
#ifdef CONFIG_PLL0_SOURCE
	else if (CONFIG_SYSCLK_SOURCE == SYSCLK_SRC_PLLACK) {
		return pll_get_default_rate(0);
  400e4c:	2006      	movs	r0, #6
  400e4e:	4b04      	ldr	r3, [pc, #16]	; (400e60 <sysclk_get_main_hz+0x18>)
  400e50:	4798      	blx	r3
  400e52:	4602      	mov	r2, r0
  400e54:	4613      	mov	r3, r2
  400e56:	009b      	lsls	r3, r3, #2
  400e58:	4413      	add	r3, r2
  400e5a:	009b      	lsls	r3, r3, #2

	else {
		/* unhandled_case(CONFIG_SYSCLK_SOURCE); */
		return 0;
	}
}
  400e5c:	4618      	mov	r0, r3
  400e5e:	bd80      	pop	{r7, pc}
  400e60:	00400dd5 	.word	0x00400dd5

00400e64 <sysclk_get_peripheral_hz>:
 * \brief Retrieves the current rate in Hz of the peripheral clocks.
 *
 * \return Frequency of the peripheral clocks, in Hz.
 */
static inline uint32_t sysclk_get_peripheral_hz(void)
{
  400e64:	b580      	push	{r7, lr}
  400e66:	af00      	add	r7, sp, #0
	/* CONFIG_SYSCLK_PRES is the register value for setting the expected */
	/* prescaler, not an immediate value. */
	return sysclk_get_main_hz() /
  400e68:	4b02      	ldr	r3, [pc, #8]	; (400e74 <sysclk_get_peripheral_hz+0x10>)
  400e6a:	4798      	blx	r3
  400e6c:	4603      	mov	r3, r0
  400e6e:	085b      	lsrs	r3, r3, #1
		((CONFIG_SYSCLK_PRES == SYSCLK_PRES_3) ? 3 :
			(1 << (CONFIG_SYSCLK_PRES >> PMC_MCKR_PRES_Pos)));
}
  400e70:	4618      	mov	r0, r3
  400e72:	bd80      	pop	{r7, pc}
  400e74:	00400e49 	.word	0x00400e49

00400e78 <sysclk_enable_peripheral_clock>:
 * \brief Enable a peripheral's clock.
 *
 * \param ul_id Id (number) of the peripheral clock.
 */
static inline void sysclk_enable_peripheral_clock(uint32_t ul_id)
{
  400e78:	b580      	push	{r7, lr}
  400e7a:	b082      	sub	sp, #8
  400e7c:	af00      	add	r7, sp, #0
  400e7e:	6078      	str	r0, [r7, #4]
	pmc_enable_periph_clk(ul_id);
  400e80:	6878      	ldr	r0, [r7, #4]
  400e82:	4b03      	ldr	r3, [pc, #12]	; (400e90 <sysclk_enable_peripheral_clock+0x18>)
  400e84:	4798      	blx	r3
}
  400e86:	bf00      	nop
  400e88:	3708      	adds	r7, #8
  400e8a:	46bd      	mov	sp, r7
  400e8c:	bd80      	pop	{r7, pc}
  400e8e:	bf00      	nop
  400e90:	00401dc1 	.word	0x00401dc1

00400e94 <InitRs485Pdc>:

 //volatile uint8_t txDone = 1;
 //volatile uint8_t rxDone = 1;

 void InitRs485Pdc(void)
 {
  400e94:	b5b0      	push	{r4, r5, r7, lr}
  400e96:	b086      	sub	sp, #24
  400e98:	af00      	add	r7, sp, #0
	 const sam_usart_opt_t usart_console_settings = {
  400e9a:	4b18      	ldr	r3, [pc, #96]	; (400efc <InitRs485Pdc+0x68>)
  400e9c:	463c      	mov	r4, r7
  400e9e:	461d      	mov	r5, r3
  400ea0:	cd0f      	ldmia	r5!, {r0, r1, r2, r3}
  400ea2:	c40f      	stmia	r4!, {r0, r1, r2, r3}
  400ea4:	e895 0003 	ldmia.w	r5, {r0, r1}
  400ea8:	e884 0003 	stmia.w	r4, {r0, r1}
		 /* This field is only used in IrDA mode. */
		 0
	 };

	 /* Enable the peripheral clock in the PMC. */
	 sysclk_enable_peripheral_clock(RS485_USART_ID);
  400eac:	200f      	movs	r0, #15
  400eae:	4b14      	ldr	r3, [pc, #80]	; (400f00 <InitRs485Pdc+0x6c>)
  400eb0:	4798      	blx	r3

	 /* Configure USART in RS485 mode. */
	 usart_init_rs485(RS485_USART, &usart_console_settings,
  400eb2:	4b14      	ldr	r3, [pc, #80]	; (400f04 <InitRs485Pdc+0x70>)
  400eb4:	4798      	blx	r3
  400eb6:	4602      	mov	r2, r0
  400eb8:	463b      	mov	r3, r7
  400eba:	4619      	mov	r1, r3
  400ebc:	4812      	ldr	r0, [pc, #72]	; (400f08 <InitRs485Pdc+0x74>)
  400ebe:	4b13      	ldr	r3, [pc, #76]	; (400f0c <InitRs485Pdc+0x78>)
  400ec0:	4798      	blx	r3
	 sysclk_get_peripheral_hz());


	 /* Disable all the interrupts. */
	 usart_disable_interrupt(RS485_USART, 0xFFFFFFFF);
  400ec2:	f04f 31ff 	mov.w	r1, #4294967295
  400ec6:	4810      	ldr	r0, [pc, #64]	; (400f08 <InitRs485Pdc+0x74>)
  400ec8:	4b11      	ldr	r3, [pc, #68]	; (400f10 <InitRs485Pdc+0x7c>)
  400eca:	4798      	blx	r3

	 /* Enable TX & RX function. */
	 usart_enable_tx(RS485_USART);
  400ecc:	480e      	ldr	r0, [pc, #56]	; (400f08 <InitRs485Pdc+0x74>)
  400ece:	4b11      	ldr	r3, [pc, #68]	; (400f14 <InitRs485Pdc+0x80>)
  400ed0:	4798      	blx	r3
	 usart_enable_rx(RS485_USART);
  400ed2:	480d      	ldr	r0, [pc, #52]	; (400f08 <InitRs485Pdc+0x74>)
  400ed4:	4b10      	ldr	r3, [pc, #64]	; (400f18 <InitRs485Pdc+0x84>)
  400ed6:	4798      	blx	r3
 	 
	 /* Configure and enable interrupt of USART. */
	 //NVIC_EnableIRQ(RS485_USART_IRQn);
 
	 /* Get board USART PDC base address and enable receiver and transmitter. */
	 rs485PdcBase = usart_get_pdc_base(RS485_USART);
  400ed8:	480b      	ldr	r0, [pc, #44]	; (400f08 <InitRs485Pdc+0x74>)
  400eda:	4b10      	ldr	r3, [pc, #64]	; (400f1c <InitRs485Pdc+0x88>)
  400edc:	4798      	blx	r3
  400ede:	4602      	mov	r2, r0
  400ee0:	4b0f      	ldr	r3, [pc, #60]	; (400f20 <InitRs485Pdc+0x8c>)
  400ee2:	601a      	str	r2, [r3, #0]
	 pdc_enable_transfer(rs485PdcBase, PERIPH_PTCR_RXTEN | PERIPH_PTCR_TXTEN);
  400ee4:	4b0e      	ldr	r3, [pc, #56]	; (400f20 <InitRs485Pdc+0x8c>)
  400ee6:	681b      	ldr	r3, [r3, #0]
  400ee8:	f240 1101 	movw	r1, #257	; 0x101
  400eec:	4618      	mov	r0, r3
  400eee:	4b0d      	ldr	r3, [pc, #52]	; (400f24 <InitRs485Pdc+0x90>)
  400ef0:	4798      	blx	r3

	 /* Enable Rx & Tx interrupts */
	 //usart_enable_interrupt(RS485_USART, US_IER_ENDRX | US_IER_ENDTX);
 }
  400ef2:	bf00      	nop
  400ef4:	3718      	adds	r7, #24
  400ef6:	46bd      	mov	sp, r7
  400ef8:	bdb0      	pop	{r4, r5, r7, pc}
  400efa:	bf00      	nop
  400efc:	00403354 	.word	0x00403354
  400f00:	00400e79 	.word	0x00400e79
  400f04:	00400e65 	.word	0x00400e65
  400f08:	40028000 	.word	0x40028000
  400f0c:	00400671 	.word	0x00400671
  400f10:	00400741 	.word	0x00400741
  400f14:	004006b1 	.word	0x004006b1
  400f18:	004006f9 	.word	0x004006f9
  400f1c:	004007c9 	.word	0x004007c9
  400f20:	200004ec 	.word	0x200004ec
  400f24:	00401521 	.word	0x00401521

00400f28 <USART1_Handler>:

 /* USART Interrupt Handler */
 void RS485_USART_Handler(void)
 {
  400f28:	b580      	push	{r7, lr}
  400f2a:	b082      	sub	sp, #8
  400f2c:	af00      	add	r7, sp, #0
	 uint32_t ul_status;

	 /* Read USART status. */
	 ul_status = usart_get_status(RS485_USART);
  400f2e:	480d      	ldr	r0, [pc, #52]	; (400f64 <USART1_Handler+0x3c>)
  400f30:	4b0d      	ldr	r3, [pc, #52]	; (400f68 <USART1_Handler+0x40>)
  400f32:	4798      	blx	r3
  400f34:	6078      	str	r0, [r7, #4]

	 if(ul_status & US_CSR_ENDRX)
  400f36:	687b      	ldr	r3, [r7, #4]
  400f38:	f003 0308 	and.w	r3, r3, #8
  400f3c:	2b00      	cmp	r3, #0
  400f3e:	d004      	beq.n	400f4a <USART1_Handler+0x22>
	 {
		//rxDone = 1;
		usart_disable_interrupt(RS485_USART, US_IDR_ENDRX);
  400f40:	2108      	movs	r1, #8
  400f42:	4808      	ldr	r0, [pc, #32]	; (400f64 <USART1_Handler+0x3c>)
  400f44:	4b09      	ldr	r3, [pc, #36]	; (400f6c <USART1_Handler+0x44>)
  400f46:	4798      	blx	r3
	 else if(ul_status & US_CSR_ENDTX)
	 {
		//txDone = 1;
		usart_disable_interrupt(RS485_USART, US_IDR_ENDTX);
	 }
}
  400f48:	e008      	b.n	400f5c <USART1_Handler+0x34>
	 if(ul_status & US_CSR_ENDRX)
	 {
		//rxDone = 1;
		usart_disable_interrupt(RS485_USART, US_IDR_ENDRX);
	 }
	 else if(ul_status & US_CSR_ENDTX)
  400f4a:	687b      	ldr	r3, [r7, #4]
  400f4c:	f003 0310 	and.w	r3, r3, #16
  400f50:	2b00      	cmp	r3, #0
  400f52:	d003      	beq.n	400f5c <USART1_Handler+0x34>
	 {
		//txDone = 1;
		usart_disable_interrupt(RS485_USART, US_IDR_ENDTX);
  400f54:	2110      	movs	r1, #16
  400f56:	4803      	ldr	r0, [pc, #12]	; (400f64 <USART1_Handler+0x3c>)
  400f58:	4b04      	ldr	r3, [pc, #16]	; (400f6c <USART1_Handler+0x44>)
  400f5a:	4798      	blx	r3
	 }
}
  400f5c:	bf00      	nop
  400f5e:	3708      	adds	r7, #8
  400f60:	46bd      	mov	sp, r7
  400f62:	bd80      	pop	{r7, pc}
  400f64:	40028000 	.word	0x40028000
  400f68:	0040075d 	.word	0x0040075d
  400f6c:	00400741 	.word	0x00400741

00400f70 <Rs485PdcStartTx>:

 /* Set pointers and start transmitting */
 void Rs485PdcStartTx(uint32_t buff, uint16_t nBytes)
 {
  400f70:	b580      	push	{r7, lr}
  400f72:	b082      	sub	sp, #8
  400f74:	af00      	add	r7, sp, #0
  400f76:	6078      	str	r0, [r7, #4]
  400f78:	460b      	mov	r3, r1
  400f7a:	807b      	strh	r3, [r7, #2]
	rs485PdcPkt.ul_addr = buff;
  400f7c:	4a08      	ldr	r2, [pc, #32]	; (400fa0 <Rs485PdcStartTx+0x30>)
  400f7e:	687b      	ldr	r3, [r7, #4]
  400f80:	6013      	str	r3, [r2, #0]
	rs485PdcPkt.ul_size = nBytes;
  400f82:	887b      	ldrh	r3, [r7, #2]
  400f84:	4a06      	ldr	r2, [pc, #24]	; (400fa0 <Rs485PdcStartTx+0x30>)
  400f86:	6053      	str	r3, [r2, #4]
	pdc_tx_init(rs485PdcBase, &rs485PdcPkt, NULL);
  400f88:	4b06      	ldr	r3, [pc, #24]	; (400fa4 <Rs485PdcStartTx+0x34>)
  400f8a:	681b      	ldr	r3, [r3, #0]
  400f8c:	2200      	movs	r2, #0
  400f8e:	4904      	ldr	r1, [pc, #16]	; (400fa0 <Rs485PdcStartTx+0x30>)
  400f90:	4618      	mov	r0, r3
  400f92:	4b05      	ldr	r3, [pc, #20]	; (400fa8 <Rs485PdcStartTx+0x38>)
  400f94:	4798      	blx	r3
	//txDone = 0;
 }
  400f96:	bf00      	nop
  400f98:	3708      	adds	r7, #8
  400f9a:	46bd      	mov	sp, r7
  400f9c:	bd80      	pop	{r7, pc}
  400f9e:	bf00      	nop
  400fa0:	200004f0 	.word	0x200004f0
  400fa4:	200004ec 	.word	0x200004ec
  400fa8:	00401499 	.word	0x00401499

00400fac <Rs485PdcStartRx>:

 /* Set pointers and start receiving */
 void Rs485PdcStartRx(uint32_t buff, uint16_t nBytes)
 {
  400fac:	b580      	push	{r7, lr}
  400fae:	b082      	sub	sp, #8
  400fb0:	af00      	add	r7, sp, #0
  400fb2:	6078      	str	r0, [r7, #4]
  400fb4:	460b      	mov	r3, r1
  400fb6:	807b      	strh	r3, [r7, #2]
	rs485PdcPkt.ul_addr = buff;
  400fb8:	4a08      	ldr	r2, [pc, #32]	; (400fdc <Rs485PdcStartRx+0x30>)
  400fba:	687b      	ldr	r3, [r7, #4]
  400fbc:	6013      	str	r3, [r2, #0]
	rs485PdcPkt.ul_size = nBytes;
  400fbe:	887b      	ldrh	r3, [r7, #2]
  400fc0:	4a06      	ldr	r2, [pc, #24]	; (400fdc <Rs485PdcStartRx+0x30>)
  400fc2:	6053      	str	r3, [r2, #4]
	pdc_rx_init(rs485PdcBase, &rs485PdcPkt, NULL);
  400fc4:	4b06      	ldr	r3, [pc, #24]	; (400fe0 <Rs485PdcStartRx+0x34>)
  400fc6:	681b      	ldr	r3, [r3, #0]
  400fc8:	2200      	movs	r2, #0
  400fca:	4904      	ldr	r1, [pc, #16]	; (400fdc <Rs485PdcStartRx+0x30>)
  400fcc:	4618      	mov	r0, r3
  400fce:	4b05      	ldr	r3, [pc, #20]	; (400fe4 <Rs485PdcStartRx+0x38>)
  400fd0:	4798      	blx	r3
	//rxDone = 0;
 }
  400fd2:	bf00      	nop
  400fd4:	3708      	adds	r7, #8
  400fd6:	46bd      	mov	sp, r7
  400fd8:	bd80      	pop	{r7, pc}
  400fda:	bf00      	nop
  400fdc:	200004f0 	.word	0x200004f0
  400fe0:	200004ec 	.word	0x200004ec
  400fe4:	004014dd 	.word	0x004014dd

00400fe8 <Rs485PdcGetRxBytes>:
 
 /* Returns number of bytes in Rx buffer */
 uint32_t Rs485PdcGetRxBytes(void)
 {
  400fe8:	b580      	push	{r7, lr}
  400fea:	b082      	sub	sp, #8
  400fec:	af00      	add	r7, sp, #0
	uint32_t recvdBytes = RS485_BUFFER_SIZE;
  400fee:	2323      	movs	r3, #35	; 0x23
  400ff0:	607b      	str	r3, [r7, #4]
	recvdBytes -= pdc_read_rx_counter(rs485PdcBase);
  400ff2:	4b09      	ldr	r3, [pc, #36]	; (401018 <Rs485PdcGetRxBytes+0x30>)
  400ff4:	681b      	ldr	r3, [r3, #0]
  400ff6:	4618      	mov	r0, r3
  400ff8:	4b08      	ldr	r3, [pc, #32]	; (40101c <Rs485PdcGetRxBytes+0x34>)
  400ffa:	4798      	blx	r3
  400ffc:	4602      	mov	r2, r0
  400ffe:	687b      	ldr	r3, [r7, #4]
  401000:	1a9b      	subs	r3, r3, r2
  401002:	607b      	str	r3, [r7, #4]
	if(recvdBytes>RS485_BUFFER_SIZE)//If overflow occurred. 
  401004:	687b      	ldr	r3, [r7, #4]
  401006:	2b23      	cmp	r3, #35	; 0x23
  401008:	d901      	bls.n	40100e <Rs485PdcGetRxBytes+0x26>
	{
		recvdBytes = 0;
  40100a:	2300      	movs	r3, #0
  40100c:	607b      	str	r3, [r7, #4]
	}
	return recvdBytes;
  40100e:	687b      	ldr	r3, [r7, #4]
 }
  401010:	4618      	mov	r0, r3
  401012:	3708      	adds	r7, #8
  401014:	46bd      	mov	sp, r7
  401016:	bd80      	pop	{r7, pc}
  401018:	200004ec 	.word	0x200004ec
  40101c:	00401561 	.word	0x00401561

00401020 <Rs485PdcGetTxStatus>:
	return (usart_get_status(RS485_USART)&US_CSR_ENDRX);
 }

 /* Returns 1 if Tx Buffer is empty else 0 */
 uint32_t Rs485PdcGetTxStatus(void)
 {
  401020:	b580      	push	{r7, lr}
  401022:	af00      	add	r7, sp, #0
	return (usart_get_status(RS485_USART)&US_CSR_ENDTX);
  401024:	4803      	ldr	r0, [pc, #12]	; (401034 <Rs485PdcGetTxStatus+0x14>)
  401026:	4b04      	ldr	r3, [pc, #16]	; (401038 <Rs485PdcGetTxStatus+0x18>)
  401028:	4798      	blx	r3
  40102a:	4603      	mov	r3, r0
  40102c:	f003 0310 	and.w	r3, r3, #16
 }
  401030:	4618      	mov	r0, r3
  401032:	bd80      	pop	{r7, pc}
  401034:	40028000 	.word	0x40028000
  401038:	0040075d 	.word	0x0040075d

0040103c <pio_handler_process>:
 *
 * \param p_pio PIO controller base address.
 * \param ul_id PIO controller ID.
 */
void pio_handler_process(Pio *p_pio, uint32_t ul_id)
{
  40103c:	b580      	push	{r7, lr}
  40103e:	b084      	sub	sp, #16
  401040:	af00      	add	r7, sp, #0
  401042:	6078      	str	r0, [r7, #4]
  401044:	6039      	str	r1, [r7, #0]
	uint32_t status;
	uint32_t i;

	/* Read PIO controller status */
	status = pio_get_interrupt_status(p_pio);
  401046:	6878      	ldr	r0, [r7, #4]
  401048:	4b2c      	ldr	r3, [pc, #176]	; (4010fc <pio_handler_process+0xc0>)
  40104a:	4798      	blx	r3
  40104c:	60f8      	str	r0, [r7, #12]
	status &= pio_get_interrupt_mask(p_pio);
  40104e:	6878      	ldr	r0, [r7, #4]
  401050:	4b2b      	ldr	r3, [pc, #172]	; (401100 <pio_handler_process+0xc4>)
  401052:	4798      	blx	r3
  401054:	4602      	mov	r2, r0
  401056:	68fb      	ldr	r3, [r7, #12]
  401058:	4013      	ands	r3, r2
  40105a:	60fb      	str	r3, [r7, #12]

	/* Check pending events */
	if (status != 0) {
  40105c:	68fb      	ldr	r3, [r7, #12]
  40105e:	2b00      	cmp	r3, #0
  401060:	d03c      	beq.n	4010dc <pio_handler_process+0xa0>
		/* Find triggering source */
		i = 0;
  401062:	2300      	movs	r3, #0
  401064:	60bb      	str	r3, [r7, #8]
		while (status != 0) {
  401066:	e034      	b.n	4010d2 <pio_handler_process+0x96>
			/* Source is configured on the same controller */
			if (gs_interrupt_sources[i].id == ul_id) {
  401068:	4a26      	ldr	r2, [pc, #152]	; (401104 <pio_handler_process+0xc8>)
  40106a:	68bb      	ldr	r3, [r7, #8]
  40106c:	011b      	lsls	r3, r3, #4
  40106e:	4413      	add	r3, r2
  401070:	681a      	ldr	r2, [r3, #0]
  401072:	683b      	ldr	r3, [r7, #0]
  401074:	429a      	cmp	r2, r3
  401076:	d126      	bne.n	4010c6 <pio_handler_process+0x8a>
				/* Source has PIOs whose statuses have changed */
				if ((status & gs_interrupt_sources[i].mask) != 0) {
  401078:	4a22      	ldr	r2, [pc, #136]	; (401104 <pio_handler_process+0xc8>)
  40107a:	68bb      	ldr	r3, [r7, #8]
  40107c:	011b      	lsls	r3, r3, #4
  40107e:	4413      	add	r3, r2
  401080:	3304      	adds	r3, #4
  401082:	681a      	ldr	r2, [r3, #0]
  401084:	68fb      	ldr	r3, [r7, #12]
  401086:	4013      	ands	r3, r2
  401088:	2b00      	cmp	r3, #0
  40108a:	d01c      	beq.n	4010c6 <pio_handler_process+0x8a>
					gs_interrupt_sources[i].handler(gs_interrupt_sources[i].id,
  40108c:	4a1d      	ldr	r2, [pc, #116]	; (401104 <pio_handler_process+0xc8>)
  40108e:	68bb      	ldr	r3, [r7, #8]
  401090:	011b      	lsls	r3, r3, #4
  401092:	4413      	add	r3, r2
  401094:	330c      	adds	r3, #12
  401096:	681b      	ldr	r3, [r3, #0]
  401098:	491a      	ldr	r1, [pc, #104]	; (401104 <pio_handler_process+0xc8>)
  40109a:	68ba      	ldr	r2, [r7, #8]
  40109c:	0112      	lsls	r2, r2, #4
  40109e:	440a      	add	r2, r1
  4010a0:	6810      	ldr	r0, [r2, #0]
  4010a2:	4918      	ldr	r1, [pc, #96]	; (401104 <pio_handler_process+0xc8>)
  4010a4:	68ba      	ldr	r2, [r7, #8]
  4010a6:	0112      	lsls	r2, r2, #4
  4010a8:	440a      	add	r2, r1
  4010aa:	3204      	adds	r2, #4
  4010ac:	6812      	ldr	r2, [r2, #0]
  4010ae:	4611      	mov	r1, r2
  4010b0:	4798      	blx	r3
							gs_interrupt_sources[i].mask);
					status &= ~(gs_interrupt_sources[i].mask);
  4010b2:	4a14      	ldr	r2, [pc, #80]	; (401104 <pio_handler_process+0xc8>)
  4010b4:	68bb      	ldr	r3, [r7, #8]
  4010b6:	011b      	lsls	r3, r3, #4
  4010b8:	4413      	add	r3, r2
  4010ba:	3304      	adds	r3, #4
  4010bc:	681b      	ldr	r3, [r3, #0]
  4010be:	43db      	mvns	r3, r3
  4010c0:	68fa      	ldr	r2, [r7, #12]
  4010c2:	4013      	ands	r3, r2
  4010c4:	60fb      	str	r3, [r7, #12]
				}
			}
			i++;
  4010c6:	68bb      	ldr	r3, [r7, #8]
  4010c8:	3301      	adds	r3, #1
  4010ca:	60bb      	str	r3, [r7, #8]
			if (i >= MAX_INTERRUPT_SOURCES) {
  4010cc:	68bb      	ldr	r3, [r7, #8]
  4010ce:	2b06      	cmp	r3, #6
  4010d0:	d803      	bhi.n	4010da <pio_handler_process+0x9e>

	/* Check pending events */
	if (status != 0) {
		/* Find triggering source */
		i = 0;
		while (status != 0) {
  4010d2:	68fb      	ldr	r3, [r7, #12]
  4010d4:	2b00      	cmp	r3, #0
  4010d6:	d1c7      	bne.n	401068 <pio_handler_process+0x2c>
  4010d8:	e000      	b.n	4010dc <pio_handler_process+0xa0>
					status &= ~(gs_interrupt_sources[i].mask);
				}
			}
			i++;
			if (i >= MAX_INTERRUPT_SOURCES) {
				break;
  4010da:	bf00      	nop
		}
	}

	/* Check capture events */
#if (SAM3S || SAM4S || SAM4E)
	if (pio_capture_enable_flag) {
  4010dc:	4b0a      	ldr	r3, [pc, #40]	; (401108 <pio_handler_process+0xcc>)
  4010de:	681b      	ldr	r3, [r3, #0]
  4010e0:	2b00      	cmp	r3, #0
  4010e2:	d007      	beq.n	4010f4 <pio_handler_process+0xb8>
		if (pio_capture_handler) {
  4010e4:	4b09      	ldr	r3, [pc, #36]	; (40110c <pio_handler_process+0xd0>)
  4010e6:	681b      	ldr	r3, [r3, #0]
  4010e8:	2b00      	cmp	r3, #0
  4010ea:	d003      	beq.n	4010f4 <pio_handler_process+0xb8>
			pio_capture_handler(p_pio);
  4010ec:	4b07      	ldr	r3, [pc, #28]	; (40110c <pio_handler_process+0xd0>)
  4010ee:	681b      	ldr	r3, [r3, #0]
  4010f0:	6878      	ldr	r0, [r7, #4]
  4010f2:	4798      	blx	r3
		}
	}
#endif
}
  4010f4:	bf00      	nop
  4010f6:	3710      	adds	r7, #16
  4010f8:	46bd      	mov	sp, r7
  4010fa:	bd80      	pop	{r7, pc}
  4010fc:	004017b5 	.word	0x004017b5
  401100:	004017cd 	.word	0x004017cd
  401104:	20000470 	.word	0x20000470
  401108:	200004f8 	.word	0x200004f8
  40110c:	200004e0 	.word	0x200004e0

00401110 <PIOA_Handler>:
/**
 * \brief Parallel IO Controller A interrupt handler.
 * Redefined PIOA interrupt handler for NVIC interrupt table.
 */
void PIOA_Handler(void)
{
  401110:	b580      	push	{r7, lr}
  401112:	af00      	add	r7, sp, #0
	pio_handler_process(PIOA, ID_PIOA);
  401114:	210b      	movs	r1, #11
  401116:	4802      	ldr	r0, [pc, #8]	; (401120 <PIOA_Handler+0x10>)
  401118:	4b02      	ldr	r3, [pc, #8]	; (401124 <PIOA_Handler+0x14>)
  40111a:	4798      	blx	r3
}
  40111c:	bf00      	nop
  40111e:	bd80      	pop	{r7, pc}
  401120:	400e0e00 	.word	0x400e0e00
  401124:	0040103d 	.word	0x0040103d

00401128 <PIOB_Handler>:
/**
 * \brief Parallel IO Controller B interrupt handler
 * Redefined PIOB interrupt handler for NVIC interrupt table.
 */
void PIOB_Handler(void)
{
  401128:	b580      	push	{r7, lr}
  40112a:	af00      	add	r7, sp, #0
    pio_handler_process(PIOB, ID_PIOB);
  40112c:	210c      	movs	r1, #12
  40112e:	4802      	ldr	r0, [pc, #8]	; (401138 <PIOB_Handler+0x10>)
  401130:	4b02      	ldr	r3, [pc, #8]	; (40113c <PIOB_Handler+0x14>)
  401132:	4798      	blx	r3
}
  401134:	bf00      	nop
  401136:	bd80      	pop	{r7, pc}
  401138:	400e1000 	.word	0x400e1000
  40113c:	0040103d 	.word	0x0040103d

00401140 <osc_enable>:
#define OSC_MAINCK_XTAL_HZ          BOARD_FREQ_MAINCK_XTAL          //!< External crystal oscillator.
#define OSC_MAINCK_BYPASS_HZ        BOARD_FREQ_MAINCK_BYPASS        //!< External bypass oscillator.
//@}

static inline void osc_enable(uint32_t ul_id)
{
  401140:	b580      	push	{r7, lr}
  401142:	b082      	sub	sp, #8
  401144:	af00      	add	r7, sp, #0
  401146:	6078      	str	r0, [r7, #4]
	switch (ul_id) {
  401148:	687b      	ldr	r3, [r7, #4]
  40114a:	2b07      	cmp	r3, #7
  40114c:	d831      	bhi.n	4011b2 <osc_enable+0x72>
  40114e:	a201      	add	r2, pc, #4	; (adr r2, 401154 <osc_enable+0x14>)
  401150:	f852 f023 	ldr.w	pc, [r2, r3, lsl #2]
  401154:	004011b1 	.word	0x004011b1
  401158:	00401175 	.word	0x00401175
  40115c:	0040117d 	.word	0x0040117d
  401160:	00401185 	.word	0x00401185
  401164:	0040118d 	.word	0x0040118d
  401168:	00401195 	.word	0x00401195
  40116c:	0040119d 	.word	0x0040119d
  401170:	004011a7 	.word	0x004011a7
	case OSC_SLCK_32K_RC:
		break;

	case OSC_SLCK_32K_XTAL:
		pmc_switch_sclk_to_32kxtal(PMC_OSC_XTAL);
  401174:	2000      	movs	r0, #0
  401176:	4b11      	ldr	r3, [pc, #68]	; (4011bc <osc_enable+0x7c>)
  401178:	4798      	blx	r3
		break;
  40117a:	e01a      	b.n	4011b2 <osc_enable+0x72>

	case OSC_SLCK_32K_BYPASS:
		pmc_switch_sclk_to_32kxtal(PMC_OSC_BYPASS);
  40117c:	2001      	movs	r0, #1
  40117e:	4b0f      	ldr	r3, [pc, #60]	; (4011bc <osc_enable+0x7c>)
  401180:	4798      	blx	r3
		break;
  401182:	e016      	b.n	4011b2 <osc_enable+0x72>


	case OSC_MAINCK_4M_RC:
		pmc_switch_mainck_to_fastrc(CKGR_MOR_MOSCRCF_4_MHz);
  401184:	2000      	movs	r0, #0
  401186:	4b0e      	ldr	r3, [pc, #56]	; (4011c0 <osc_enable+0x80>)
  401188:	4798      	blx	r3
		break;
  40118a:	e012      	b.n	4011b2 <osc_enable+0x72>

	case OSC_MAINCK_8M_RC:
		pmc_switch_mainck_to_fastrc(CKGR_MOR_MOSCRCF_8_MHz);
  40118c:	2010      	movs	r0, #16
  40118e:	4b0c      	ldr	r3, [pc, #48]	; (4011c0 <osc_enable+0x80>)
  401190:	4798      	blx	r3
		break;
  401192:	e00e      	b.n	4011b2 <osc_enable+0x72>

	case OSC_MAINCK_12M_RC:
		pmc_switch_mainck_to_fastrc(CKGR_MOR_MOSCRCF_12_MHz);
  401194:	2020      	movs	r0, #32
  401196:	4b0a      	ldr	r3, [pc, #40]	; (4011c0 <osc_enable+0x80>)
  401198:	4798      	blx	r3
		break;
  40119a:	e00a      	b.n	4011b2 <osc_enable+0x72>


	case OSC_MAINCK_XTAL:
		pmc_switch_mainck_to_xtal(PMC_OSC_XTAL,
  40119c:	213e      	movs	r1, #62	; 0x3e
  40119e:	2000      	movs	r0, #0
  4011a0:	4b08      	ldr	r3, [pc, #32]	; (4011c4 <osc_enable+0x84>)
  4011a2:	4798      	blx	r3
			pmc_us_to_moscxtst(BOARD_OSC_STARTUP_US,
				OSC_SLCK_32K_RC_HZ));
		break;
  4011a4:	e005      	b.n	4011b2 <osc_enable+0x72>

	case OSC_MAINCK_BYPASS:
		pmc_switch_mainck_to_xtal(PMC_OSC_BYPASS,
  4011a6:	213e      	movs	r1, #62	; 0x3e
  4011a8:	2001      	movs	r0, #1
  4011aa:	4b06      	ldr	r3, [pc, #24]	; (4011c4 <osc_enable+0x84>)
  4011ac:	4798      	blx	r3
			pmc_us_to_moscxtst(BOARD_OSC_STARTUP_US,
				OSC_SLCK_32K_RC_HZ));
		break;
  4011ae:	e000      	b.n	4011b2 <osc_enable+0x72>

static inline void osc_enable(uint32_t ul_id)
{
	switch (ul_id) {
	case OSC_SLCK_32K_RC:
		break;
  4011b0:	bf00      	nop
		pmc_switch_mainck_to_xtal(PMC_OSC_BYPASS,
			pmc_us_to_moscxtst(BOARD_OSC_STARTUP_US,
				OSC_SLCK_32K_RC_HZ));
		break;
	}
}
  4011b2:	bf00      	nop
  4011b4:	3708      	adds	r7, #8
  4011b6:	46bd      	mov	sp, r7
  4011b8:	bd80      	pop	{r7, pc}
  4011ba:	bf00      	nop
  4011bc:	00401bf5 	.word	0x00401bf5
  4011c0:	00401c61 	.word	0x00401c61
  4011c4:	00401cd1 	.word	0x00401cd1

004011c8 <osc_is_ready>:
		break;
	}
}

static inline bool osc_is_ready(uint32_t ul_id)
{
  4011c8:	b580      	push	{r7, lr}
  4011ca:	b082      	sub	sp, #8
  4011cc:	af00      	add	r7, sp, #0
  4011ce:	6078      	str	r0, [r7, #4]
	switch (ul_id) {
  4011d0:	687b      	ldr	r3, [r7, #4]
  4011d2:	2b07      	cmp	r3, #7
  4011d4:	d826      	bhi.n	401224 <osc_is_ready+0x5c>
  4011d6:	a201      	add	r2, pc, #4	; (adr r2, 4011dc <osc_is_ready+0x14>)
  4011d8:	f852 f023 	ldr.w	pc, [r2, r3, lsl #2]
  4011dc:	004011fd 	.word	0x004011fd
  4011e0:	00401201 	.word	0x00401201
  4011e4:	00401201 	.word	0x00401201
  4011e8:	00401213 	.word	0x00401213
  4011ec:	00401213 	.word	0x00401213
  4011f0:	00401213 	.word	0x00401213
  4011f4:	00401213 	.word	0x00401213
  4011f8:	00401213 	.word	0x00401213
	case OSC_SLCK_32K_RC:
		return 1;
  4011fc:	2301      	movs	r3, #1
  4011fe:	e012      	b.n	401226 <osc_is_ready+0x5e>

	case OSC_SLCK_32K_XTAL:
	case OSC_SLCK_32K_BYPASS:
		return pmc_osc_is_ready_32kxtal();
  401200:	4b0b      	ldr	r3, [pc, #44]	; (401230 <osc_is_ready+0x68>)
  401202:	4798      	blx	r3
  401204:	4603      	mov	r3, r0
  401206:	2b00      	cmp	r3, #0
  401208:	bf14      	ite	ne
  40120a:	2301      	movne	r3, #1
  40120c:	2300      	moveq	r3, #0
  40120e:	b2db      	uxtb	r3, r3
  401210:	e009      	b.n	401226 <osc_is_ready+0x5e>
	case OSC_MAINCK_4M_RC:
	case OSC_MAINCK_8M_RC:
	case OSC_MAINCK_12M_RC:
	case OSC_MAINCK_XTAL:
	case OSC_MAINCK_BYPASS:
		return pmc_osc_is_ready_mainck();
  401212:	4b08      	ldr	r3, [pc, #32]	; (401234 <osc_is_ready+0x6c>)
  401214:	4798      	blx	r3
  401216:	4603      	mov	r3, r0
  401218:	2b00      	cmp	r3, #0
  40121a:	bf14      	ite	ne
  40121c:	2301      	movne	r3, #1
  40121e:	2300      	moveq	r3, #0
  401220:	b2db      	uxtb	r3, r3
  401222:	e000      	b.n	401226 <osc_is_ready+0x5e>
	}

	return 0;
  401224:	2300      	movs	r3, #0
}
  401226:	4618      	mov	r0, r3
  401228:	3708      	adds	r7, #8
  40122a:	46bd      	mov	sp, r7
  40122c:	bd80      	pop	{r7, pc}
  40122e:	bf00      	nop
  401230:	00401c2d 	.word	0x00401c2d
  401234:	00401d49 	.word	0x00401d49

00401238 <osc_get_rate>:

static inline uint32_t osc_get_rate(uint32_t ul_id)
{
  401238:	b480      	push	{r7}
  40123a:	b083      	sub	sp, #12
  40123c:	af00      	add	r7, sp, #0
  40123e:	6078      	str	r0, [r7, #4]
	switch (ul_id) {
  401240:	687b      	ldr	r3, [r7, #4]
  401242:	2b07      	cmp	r3, #7
  401244:	d825      	bhi.n	401292 <osc_get_rate+0x5a>
  401246:	a201      	add	r2, pc, #4	; (adr r2, 40124c <osc_get_rate+0x14>)
  401248:	f852 f023 	ldr.w	pc, [r2, r3, lsl #2]
  40124c:	0040126d 	.word	0x0040126d
  401250:	00401273 	.word	0x00401273
  401254:	00401279 	.word	0x00401279
  401258:	0040127f 	.word	0x0040127f
  40125c:	00401283 	.word	0x00401283
  401260:	00401287 	.word	0x00401287
  401264:	0040128b 	.word	0x0040128b
  401268:	0040128f 	.word	0x0040128f
	case OSC_SLCK_32K_RC:
		return OSC_SLCK_32K_RC_HZ;
  40126c:	f44f 43fa 	mov.w	r3, #32000	; 0x7d00
  401270:	e010      	b.n	401294 <osc_get_rate+0x5c>

	case OSC_SLCK_32K_XTAL:
		return BOARD_FREQ_SLCK_XTAL;
  401272:	f44f 4300 	mov.w	r3, #32768	; 0x8000
  401276:	e00d      	b.n	401294 <osc_get_rate+0x5c>

	case OSC_SLCK_32K_BYPASS:
		return BOARD_FREQ_SLCK_BYPASS;
  401278:	f44f 4300 	mov.w	r3, #32768	; 0x8000
  40127c:	e00a      	b.n	401294 <osc_get_rate+0x5c>

	case OSC_MAINCK_4M_RC:
		return OSC_MAINCK_4M_RC_HZ;
  40127e:	4b08      	ldr	r3, [pc, #32]	; (4012a0 <osc_get_rate+0x68>)
  401280:	e008      	b.n	401294 <osc_get_rate+0x5c>

	case OSC_MAINCK_8M_RC:
		return OSC_MAINCK_8M_RC_HZ;
  401282:	4b08      	ldr	r3, [pc, #32]	; (4012a4 <osc_get_rate+0x6c>)
  401284:	e006      	b.n	401294 <osc_get_rate+0x5c>

	case OSC_MAINCK_12M_RC:
		return OSC_MAINCK_12M_RC_HZ;
  401286:	4b08      	ldr	r3, [pc, #32]	; (4012a8 <osc_get_rate+0x70>)
  401288:	e004      	b.n	401294 <osc_get_rate+0x5c>

	case OSC_MAINCK_XTAL:
		return BOARD_FREQ_MAINCK_XTAL;
  40128a:	4b07      	ldr	r3, [pc, #28]	; (4012a8 <osc_get_rate+0x70>)
  40128c:	e002      	b.n	401294 <osc_get_rate+0x5c>

	case OSC_MAINCK_BYPASS:
		return BOARD_FREQ_MAINCK_BYPASS;
  40128e:	4b06      	ldr	r3, [pc, #24]	; (4012a8 <osc_get_rate+0x70>)
  401290:	e000      	b.n	401294 <osc_get_rate+0x5c>
	}

	return 0;
  401292:	2300      	movs	r3, #0
}
  401294:	4618      	mov	r0, r3
  401296:	370c      	adds	r7, #12
  401298:	46bd      	mov	sp, r7
  40129a:	bc80      	pop	{r7}
  40129c:	4770      	bx	lr
  40129e:	bf00      	nop
  4012a0:	003d0900 	.word	0x003d0900
  4012a4:	007a1200 	.word	0x007a1200
  4012a8:	00b71b00 	.word	0x00b71b00

004012ac <osc_wait_ready>:
 * to become stable and ready to use as a clock source.
 *
 * \param id A number identifying the oscillator to wait for.
 */
static inline void osc_wait_ready(uint8_t id)
{
  4012ac:	b580      	push	{r7, lr}
  4012ae:	b082      	sub	sp, #8
  4012b0:	af00      	add	r7, sp, #0
  4012b2:	4603      	mov	r3, r0
  4012b4:	71fb      	strb	r3, [r7, #7]
	while (!osc_is_ready(id)) {
  4012b6:	bf00      	nop
  4012b8:	79fb      	ldrb	r3, [r7, #7]
  4012ba:	4618      	mov	r0, r3
  4012bc:	4b05      	ldr	r3, [pc, #20]	; (4012d4 <osc_wait_ready+0x28>)
  4012be:	4798      	blx	r3
  4012c0:	4603      	mov	r3, r0
  4012c2:	f083 0301 	eor.w	r3, r3, #1
  4012c6:	b2db      	uxtb	r3, r3
  4012c8:	2b00      	cmp	r3, #0
  4012ca:	d1f5      	bne.n	4012b8 <osc_wait_ready+0xc>
		/* Do nothing */
	}
}
  4012cc:	bf00      	nop
  4012ce:	3708      	adds	r7, #8
  4012d0:	46bd      	mov	sp, r7
  4012d2:	bd80      	pop	{r7, pc}
  4012d4:	004011c9 	.word	0x004011c9

004012d8 <pll_config_init>:
 * \note The SAM3S PLL hardware interprets mul as mul+1. For readability the hardware mul+1
 * is hidden in this implementation. Use mul as mul effective value.
 */
static inline void pll_config_init(struct pll_config *p_cfg,
		enum pll_source e_src, uint32_t ul_div, uint32_t ul_mul)
{
  4012d8:	b580      	push	{r7, lr}
  4012da:	b086      	sub	sp, #24
  4012dc:	af00      	add	r7, sp, #0
  4012de:	60f8      	str	r0, [r7, #12]
  4012e0:	607a      	str	r2, [r7, #4]
  4012e2:	603b      	str	r3, [r7, #0]
  4012e4:	460b      	mov	r3, r1
  4012e6:	72fb      	strb	r3, [r7, #11]
	uint32_t vco_hz;

	Assert(e_src < PLL_NR_SOURCES);

	/* Calculate internal VCO frequency */
	vco_hz = osc_get_rate(e_src) / ul_div;
  4012e8:	7afb      	ldrb	r3, [r7, #11]
  4012ea:	4618      	mov	r0, r3
  4012ec:	4b0d      	ldr	r3, [pc, #52]	; (401324 <pll_config_init+0x4c>)
  4012ee:	4798      	blx	r3
  4012f0:	4602      	mov	r2, r0
  4012f2:	687b      	ldr	r3, [r7, #4]
  4012f4:	fbb2 f3f3 	udiv	r3, r2, r3
  4012f8:	617b      	str	r3, [r7, #20]
	Assert(vco_hz >= PLL_INPUT_MIN_HZ);
	Assert(vco_hz <= PLL_INPUT_MAX_HZ);

	vco_hz *= ul_mul;
  4012fa:	697b      	ldr	r3, [r7, #20]
  4012fc:	683a      	ldr	r2, [r7, #0]
  4012fe:	fb02 f303 	mul.w	r3, r2, r3
  401302:	617b      	str	r3, [r7, #20]
	Assert(vco_hz >= PLL_OUTPUT_MIN_HZ);
	Assert(vco_hz <= PLL_OUTPUT_MAX_HZ);

	/* PMC hardware will automatically make it mul+1 */
	p_cfg->ctrl = CKGR_PLLAR_MULA(ul_mul - 1) | CKGR_PLLAR_DIVA(ul_div) | CKGR_PLLAR_PLLACOUNT(PLL_COUNT);
  401304:	683b      	ldr	r3, [r7, #0]
  401306:	3b01      	subs	r3, #1
  401308:	041a      	lsls	r2, r3, #16
  40130a:	4b07      	ldr	r3, [pc, #28]	; (401328 <pll_config_init+0x50>)
  40130c:	4013      	ands	r3, r2
  40130e:	687a      	ldr	r2, [r7, #4]
  401310:	b2d2      	uxtb	r2, r2
  401312:	4313      	orrs	r3, r2
  401314:	f443 527c 	orr.w	r2, r3, #16128	; 0x3f00
  401318:	68fb      	ldr	r3, [r7, #12]
  40131a:	601a      	str	r2, [r3, #0]
}
  40131c:	bf00      	nop
  40131e:	3718      	adds	r7, #24
  401320:	46bd      	mov	sp, r7
  401322:	bd80      	pop	{r7, pc}
  401324:	00401239 	.word	0x00401239
  401328:	07ff0000 	.word	0x07ff0000

0040132c <pll_enable>:
		PMC->CKGR_PLLBR = p_cfg->ctrl;
	}
}

static inline void pll_enable(const struct pll_config *p_cfg, uint32_t ul_pll_id)
{
  40132c:	b580      	push	{r7, lr}
  40132e:	b082      	sub	sp, #8
  401330:	af00      	add	r7, sp, #0
  401332:	6078      	str	r0, [r7, #4]
  401334:	6039      	str	r1, [r7, #0]
	Assert(ul_pll_id < NR_PLLS);

	if (ul_pll_id == PLLA_ID) {
  401336:	683b      	ldr	r3, [r7, #0]
  401338:	2b00      	cmp	r3, #0
  40133a:	d108      	bne.n	40134e <pll_enable+0x22>
		pmc_disable_pllack(); // Always stop PLL first!
  40133c:	4b09      	ldr	r3, [pc, #36]	; (401364 <pll_enable+0x38>)
  40133e:	4798      	blx	r3
		PMC->CKGR_PLLAR = CKGR_PLLAR_ONE | p_cfg->ctrl;
  401340:	4a09      	ldr	r2, [pc, #36]	; (401368 <pll_enable+0x3c>)
  401342:	687b      	ldr	r3, [r7, #4]
  401344:	681b      	ldr	r3, [r3, #0]
  401346:	f043 5300 	orr.w	r3, r3, #536870912	; 0x20000000
  40134a:	6293      	str	r3, [r2, #40]	; 0x28
	} else {
		pmc_disable_pllbck();
		PMC->CKGR_PLLBR = p_cfg->ctrl;
	}
}
  40134c:	e005      	b.n	40135a <pll_enable+0x2e>

	if (ul_pll_id == PLLA_ID) {
		pmc_disable_pllack(); // Always stop PLL first!
		PMC->CKGR_PLLAR = CKGR_PLLAR_ONE | p_cfg->ctrl;
	} else {
		pmc_disable_pllbck();
  40134e:	4b07      	ldr	r3, [pc, #28]	; (40136c <pll_enable+0x40>)
  401350:	4798      	blx	r3
		PMC->CKGR_PLLBR = p_cfg->ctrl;
  401352:	4a05      	ldr	r2, [pc, #20]	; (401368 <pll_enable+0x3c>)
  401354:	687b      	ldr	r3, [r7, #4]
  401356:	681b      	ldr	r3, [r3, #0]
  401358:	62d3      	str	r3, [r2, #44]	; 0x2c
	}
}
  40135a:	bf00      	nop
  40135c:	3708      	adds	r7, #8
  40135e:	46bd      	mov	sp, r7
  401360:	bd80      	pop	{r7, pc}
  401362:	bf00      	nop
  401364:	00401d61 	.word	0x00401d61
  401368:	400e0400 	.word	0x400e0400
  40136c:	00401d91 	.word	0x00401d91

00401370 <pll_is_locked>:
		pmc_disable_pllbck();
	}
}

static inline uint32_t pll_is_locked(uint32_t ul_pll_id)
{
  401370:	b580      	push	{r7, lr}
  401372:	b082      	sub	sp, #8
  401374:	af00      	add	r7, sp, #0
  401376:	6078      	str	r0, [r7, #4]
	Assert(ul_pll_id < NR_PLLS);

	if (ul_pll_id == PLLA_ID) {
  401378:	687b      	ldr	r3, [r7, #4]
  40137a:	2b00      	cmp	r3, #0
  40137c:	d103      	bne.n	401386 <pll_is_locked+0x16>
		return pmc_is_locked_pllack();
  40137e:	4b05      	ldr	r3, [pc, #20]	; (401394 <pll_is_locked+0x24>)
  401380:	4798      	blx	r3
  401382:	4603      	mov	r3, r0
  401384:	e002      	b.n	40138c <pll_is_locked+0x1c>
	} else {
		return pmc_is_locked_pllbck();
  401386:	4b04      	ldr	r3, [pc, #16]	; (401398 <pll_is_locked+0x28>)
  401388:	4798      	blx	r3
  40138a:	4603      	mov	r3, r0
	}
}
  40138c:	4618      	mov	r0, r3
  40138e:	3708      	adds	r7, #8
  401390:	46bd      	mov	sp, r7
  401392:	bd80      	pop	{r7, pc}
  401394:	00401d79 	.word	0x00401d79
  401398:	00401da9 	.word	0x00401da9

0040139c <pll_enable_source>:

static inline void pll_enable_source(enum pll_source e_src)
{
  40139c:	b580      	push	{r7, lr}
  40139e:	b082      	sub	sp, #8
  4013a0:	af00      	add	r7, sp, #0
  4013a2:	4603      	mov	r3, r0
  4013a4:	71fb      	strb	r3, [r7, #7]
	switch (e_src) {
  4013a6:	79fb      	ldrb	r3, [r7, #7]
  4013a8:	3b03      	subs	r3, #3
  4013aa:	2b04      	cmp	r3, #4
  4013ac:	d808      	bhi.n	4013c0 <pll_enable_source+0x24>
	case PLL_SRC_MAINCK_4M_RC:
	case PLL_SRC_MAINCK_8M_RC:
	case PLL_SRC_MAINCK_12M_RC:
	case PLL_SRC_MAINCK_XTAL:
	case PLL_SRC_MAINCK_BYPASS:
		osc_enable(e_src);
  4013ae:	79fb      	ldrb	r3, [r7, #7]
  4013b0:	4618      	mov	r0, r3
  4013b2:	4b06      	ldr	r3, [pc, #24]	; (4013cc <pll_enable_source+0x30>)
  4013b4:	4798      	blx	r3
		osc_wait_ready(e_src);
  4013b6:	79fb      	ldrb	r3, [r7, #7]
  4013b8:	4618      	mov	r0, r3
  4013ba:	4b05      	ldr	r3, [pc, #20]	; (4013d0 <pll_enable_source+0x34>)
  4013bc:	4798      	blx	r3
		break;
  4013be:	e000      	b.n	4013c2 <pll_enable_source+0x26>

	default:
		Assert(false);
		break;
  4013c0:	bf00      	nop
	}
}
  4013c2:	bf00      	nop
  4013c4:	3708      	adds	r7, #8
  4013c6:	46bd      	mov	sp, r7
  4013c8:	bd80      	pop	{r7, pc}
  4013ca:	bf00      	nop
  4013cc:	00401141 	.word	0x00401141
  4013d0:	004012ad 	.word	0x004012ad

004013d4 <pll_wait_for_lock>:
 *
 * \retval STATUS_OK The PLL is now locked.
 * \retval ERR_TIMEOUT Timed out waiting for PLL to become locked.
 */
static inline int pll_wait_for_lock(unsigned int pll_id)
{
  4013d4:	b580      	push	{r7, lr}
  4013d6:	b082      	sub	sp, #8
  4013d8:	af00      	add	r7, sp, #0
  4013da:	6078      	str	r0, [r7, #4]
	Assert(pll_id < NR_PLLS);

	while (!pll_is_locked(pll_id)) {
  4013dc:	bf00      	nop
  4013de:	6878      	ldr	r0, [r7, #4]
  4013e0:	4b04      	ldr	r3, [pc, #16]	; (4013f4 <pll_wait_for_lock+0x20>)
  4013e2:	4798      	blx	r3
  4013e4:	4603      	mov	r3, r0
  4013e6:	2b00      	cmp	r3, #0
  4013e8:	d0f9      	beq.n	4013de <pll_wait_for_lock+0xa>
		/* Do nothing */
	}

	return 0;
  4013ea:	2300      	movs	r3, #0
}
  4013ec:	4618      	mov	r0, r3
  4013ee:	3708      	adds	r7, #8
  4013f0:	46bd      	mov	sp, r7
  4013f2:	bd80      	pop	{r7, pc}
  4013f4:	00401371 	.word	0x00401371

004013f8 <sysclk_get_main_hz>:
 */
#if (defined CONFIG_SYSCLK_DEFAULT_RETURNS_SLOW_OSC)
extern uint32_t sysclk_initialized;
#endif
static inline uint32_t sysclk_get_main_hz(void)
{
  4013f8:	b580      	push	{r7, lr}
  4013fa:	af00      	add	r7, sp, #0
	} else if (CONFIG_SYSCLK_SOURCE == SYSCLK_SRC_MAINCK_BYPASS) {
		return OSC_MAINCK_BYPASS_HZ;
	}
#ifdef CONFIG_PLL0_SOURCE
	else if (CONFIG_SYSCLK_SOURCE == SYSCLK_SRC_PLLACK) {
		return pll_get_default_rate(0);
  4013fc:	2006      	movs	r0, #6
  4013fe:	4b04      	ldr	r3, [pc, #16]	; (401410 <sysclk_get_main_hz+0x18>)
  401400:	4798      	blx	r3
  401402:	4602      	mov	r2, r0
  401404:	4613      	mov	r3, r2
  401406:	009b      	lsls	r3, r3, #2
  401408:	4413      	add	r3, r2
  40140a:	009b      	lsls	r3, r3, #2

	else {
		/* unhandled_case(CONFIG_SYSCLK_SOURCE); */
		return 0;
	}
}
  40140c:	4618      	mov	r0, r3
  40140e:	bd80      	pop	{r7, pc}
  401410:	00401239 	.word	0x00401239

00401414 <sysclk_get_cpu_hz>:
 * clocks.
 *
 * \return Frequency of the CPU clock, in Hz.
 */
static inline uint32_t sysclk_get_cpu_hz(void)
{
  401414:	b580      	push	{r7, lr}
  401416:	af00      	add	r7, sp, #0
	/* CONFIG_SYSCLK_PRES is the register value for setting the expected */
	/* prescaler, not an immediate value. */
	return sysclk_get_main_hz() /
  401418:	4b02      	ldr	r3, [pc, #8]	; (401424 <sysclk_get_cpu_hz+0x10>)
  40141a:	4798      	blx	r3
  40141c:	4603      	mov	r3, r0
  40141e:	085b      	lsrs	r3, r3, #1
		((CONFIG_SYSCLK_PRES == SYSCLK_PRES_3) ? 3 :
			(1 << (CONFIG_SYSCLK_PRES >> PMC_MCKR_PRES_Pos)));
}
  401420:	4618      	mov	r0, r3
  401422:	bd80      	pop	{r7, pc}
  401424:	004013f9 	.word	0x004013f9

00401428 <sysclk_init>:
	pmc_disable_udpck();
}
#endif // CONFIG_USBCLK_SOURCE

void sysclk_init(void)
{
  401428:	b590      	push	{r4, r7, lr}
  40142a:	b083      	sub	sp, #12
  40142c:	af00      	add	r7, sp, #0
	/* Set flash wait state to max in case the below clock switching. */
	system_init_flash(CHIP_FREQ_CPU_MAX);
  40142e:	4811      	ldr	r0, [pc, #68]	; (401474 <sysclk_init+0x4c>)
  401430:	4b11      	ldr	r3, [pc, #68]	; (401478 <sysclk_init+0x50>)
  401432:	4798      	blx	r3

#ifdef CONFIG_PLL0_SOURCE
	else if (CONFIG_SYSCLK_SOURCE == SYSCLK_SRC_PLLACK) {
		struct pll_config pllcfg;

		pll_enable_source(CONFIG_PLL0_SOURCE);
  401434:	2006      	movs	r0, #6
  401436:	4b11      	ldr	r3, [pc, #68]	; (40147c <sysclk_init+0x54>)
  401438:	4798      	blx	r3
		pll_config_defaults(&pllcfg, 0);
  40143a:	1d38      	adds	r0, r7, #4
  40143c:	2314      	movs	r3, #20
  40143e:	2201      	movs	r2, #1
  401440:	2106      	movs	r1, #6
  401442:	4c0f      	ldr	r4, [pc, #60]	; (401480 <sysclk_init+0x58>)
  401444:	47a0      	blx	r4
		pll_enable(&pllcfg, 0);
  401446:	1d3b      	adds	r3, r7, #4
  401448:	2100      	movs	r1, #0
  40144a:	4618      	mov	r0, r3
  40144c:	4b0d      	ldr	r3, [pc, #52]	; (401484 <sysclk_init+0x5c>)
  40144e:	4798      	blx	r3
		pll_wait_for_lock(0);
  401450:	2000      	movs	r0, #0
  401452:	4b0d      	ldr	r3, [pc, #52]	; (401488 <sysclk_init+0x60>)
  401454:	4798      	blx	r3
		pmc_switch_mck_to_pllack(CONFIG_SYSCLK_PRES);
  401456:	2010      	movs	r0, #16
  401458:	4b0c      	ldr	r3, [pc, #48]	; (40148c <sysclk_init+0x64>)
  40145a:	4798      	blx	r3
		pmc_switch_mck_to_pllbck(CONFIG_SYSCLK_PRES);
	}
#endif

	/* Update the SystemFrequency variable */
	SystemCoreClockUpdate();
  40145c:	4b0c      	ldr	r3, [pc, #48]	; (401490 <sysclk_init+0x68>)
  40145e:	4798      	blx	r3

	/* Set a flash wait state depending on the new cpu frequency */
	system_init_flash(sysclk_get_cpu_hz());
  401460:	4b0c      	ldr	r3, [pc, #48]	; (401494 <sysclk_init+0x6c>)
  401462:	4798      	blx	r3
  401464:	4603      	mov	r3, r0
  401466:	4618      	mov	r0, r3
  401468:	4b03      	ldr	r3, [pc, #12]	; (401478 <sysclk_init+0x50>)
  40146a:	4798      	blx	r3

#if (defined CONFIG_SYSCLK_DEFAULT_RETURNS_SLOW_OSC)
	/* Signal that the internal frequencies are setup */
	sysclk_initialized = 1;
#endif
}
  40146c:	bf00      	nop
  40146e:	370c      	adds	r7, #12
  401470:	46bd      	mov	sp, r7
  401472:	bd90      	pop	{r4, r7, pc}
  401474:	07270e00 	.word	0x07270e00
  401478:	004021b5 	.word	0x004021b5
  40147c:	0040139d 	.word	0x0040139d
  401480:	004012d9 	.word	0x004012d9
  401484:	0040132d 	.word	0x0040132d
  401488:	004013d5 	.word	0x004013d5
  40148c:	00401b75 	.word	0x00401b75
  401490:	00402019 	.word	0x00402019
  401494:	00401415 	.word	0x00401415

00401498 <pdc_tx_init>:
 */
void pdc_tx_init(
		Pdc *p_pdc,
		pdc_packet_t *p_packet,
		pdc_packet_t *p_next_packet)
{
  401498:	b480      	push	{r7}
  40149a:	b085      	sub	sp, #20
  40149c:	af00      	add	r7, sp, #0
  40149e:	60f8      	str	r0, [r7, #12]
  4014a0:	60b9      	str	r1, [r7, #8]
  4014a2:	607a      	str	r2, [r7, #4]
	/* Validate inputs. */
	Assert(p_pdc);
	
	if (p_packet) {
  4014a4:	68bb      	ldr	r3, [r7, #8]
  4014a6:	2b00      	cmp	r3, #0
  4014a8:	d007      	beq.n	4014ba <pdc_tx_init+0x22>
		p_pdc->PERIPH_TPR = p_packet->ul_addr;
  4014aa:	68bb      	ldr	r3, [r7, #8]
  4014ac:	681a      	ldr	r2, [r3, #0]
  4014ae:	68fb      	ldr	r3, [r7, #12]
  4014b0:	609a      	str	r2, [r3, #8]
		p_pdc->PERIPH_TCR = p_packet->ul_size;
  4014b2:	68bb      	ldr	r3, [r7, #8]
  4014b4:	685a      	ldr	r2, [r3, #4]
  4014b6:	68fb      	ldr	r3, [r7, #12]
  4014b8:	60da      	str	r2, [r3, #12]
	}
	if (p_next_packet) {
  4014ba:	687b      	ldr	r3, [r7, #4]
  4014bc:	2b00      	cmp	r3, #0
  4014be:	d007      	beq.n	4014d0 <pdc_tx_init+0x38>
		p_pdc->PERIPH_TNPR = p_next_packet->ul_addr;
  4014c0:	687b      	ldr	r3, [r7, #4]
  4014c2:	681a      	ldr	r2, [r3, #0]
  4014c4:	68fb      	ldr	r3, [r7, #12]
  4014c6:	619a      	str	r2, [r3, #24]
		p_pdc->PERIPH_TNCR = p_next_packet->ul_size;
  4014c8:	687b      	ldr	r3, [r7, #4]
  4014ca:	685a      	ldr	r2, [r3, #4]
  4014cc:	68fb      	ldr	r3, [r7, #12]
  4014ce:	61da      	str	r2, [r3, #28]
	}
}
  4014d0:	bf00      	nop
  4014d2:	3714      	adds	r7, #20
  4014d4:	46bd      	mov	sp, r7
  4014d6:	bc80      	pop	{r7}
  4014d8:	4770      	bx	lr
  4014da:	bf00      	nop

004014dc <pdc_rx_init>:
 */
void pdc_rx_init(
		Pdc *p_pdc,
		pdc_packet_t *p_packet,
		pdc_packet_t *p_next_packet)
{
  4014dc:	b480      	push	{r7}
  4014de:	b085      	sub	sp, #20
  4014e0:	af00      	add	r7, sp, #0
  4014e2:	60f8      	str	r0, [r7, #12]
  4014e4:	60b9      	str	r1, [r7, #8]
  4014e6:	607a      	str	r2, [r7, #4]
	/* Validate inputs. */
	Assert(p_pdc);
	
	if (p_packet) {
  4014e8:	68bb      	ldr	r3, [r7, #8]
  4014ea:	2b00      	cmp	r3, #0
  4014ec:	d007      	beq.n	4014fe <pdc_rx_init+0x22>
		p_pdc->PERIPH_RPR = p_packet->ul_addr;
  4014ee:	68bb      	ldr	r3, [r7, #8]
  4014f0:	681a      	ldr	r2, [r3, #0]
  4014f2:	68fb      	ldr	r3, [r7, #12]
  4014f4:	601a      	str	r2, [r3, #0]
		p_pdc->PERIPH_RCR = p_packet->ul_size;
  4014f6:	68bb      	ldr	r3, [r7, #8]
  4014f8:	685a      	ldr	r2, [r3, #4]
  4014fa:	68fb      	ldr	r3, [r7, #12]
  4014fc:	605a      	str	r2, [r3, #4]
	}
	if (p_next_packet) {
  4014fe:	687b      	ldr	r3, [r7, #4]
  401500:	2b00      	cmp	r3, #0
  401502:	d007      	beq.n	401514 <pdc_rx_init+0x38>
		p_pdc->PERIPH_RNPR = p_next_packet->ul_addr;
  401504:	687b      	ldr	r3, [r7, #4]
  401506:	681a      	ldr	r2, [r3, #0]
  401508:	68fb      	ldr	r3, [r7, #12]
  40150a:	611a      	str	r2, [r3, #16]
		p_pdc->PERIPH_RNCR = p_next_packet->ul_size;
  40150c:	687b      	ldr	r3, [r7, #4]
  40150e:	685a      	ldr	r2, [r3, #4]
  401510:	68fb      	ldr	r3, [r7, #12]
  401512:	615a      	str	r2, [r3, #20]
	}
}
  401514:	bf00      	nop
  401516:	3714      	adds	r7, #20
  401518:	46bd      	mov	sp, r7
  40151a:	bc80      	pop	{r7}
  40151c:	4770      	bx	lr
  40151e:	bf00      	nop

00401520 <pdc_enable_transfer>:
 *                        (bit PERIPH_PTCR_RXTEN and bit PERIPH_PTCR_TXTEN)
 */
void pdc_enable_transfer(
		Pdc *p_pdc,
		uint32_t ul_controls)
{
  401520:	b480      	push	{r7}
  401522:	b083      	sub	sp, #12
  401524:	af00      	add	r7, sp, #0
  401526:	6078      	str	r0, [r7, #4]
  401528:	6039      	str	r1, [r7, #0]
	/* Validate inputs. */
	Assert(p_pdc);
	
	p_pdc->PERIPH_PTCR =
			ul_controls & (PERIPH_PTCR_RXTEN | PERIPH_PTCR_TXTEN);
  40152a:	683a      	ldr	r2, [r7, #0]
  40152c:	f240 1301 	movw	r3, #257	; 0x101
  401530:	4013      	ands	r3, r2
		uint32_t ul_controls)
{
	/* Validate inputs. */
	Assert(p_pdc);
	
	p_pdc->PERIPH_PTCR =
  401532:	687a      	ldr	r2, [r7, #4]
  401534:	6213      	str	r3, [r2, #32]
			ul_controls & (PERIPH_PTCR_RXTEN | PERIPH_PTCR_TXTEN);
}
  401536:	bf00      	nop
  401538:	370c      	adds	r7, #12
  40153a:	46bd      	mov	sp, r7
  40153c:	bc80      	pop	{r7}
  40153e:	4770      	bx	lr

00401540 <pdc_disable_transfer>:
 *                        (bit PERIPH_PTCR_TXTDIS, bit PERIPH_PTCR_TXTDIS)
 */
void pdc_disable_transfer(
		Pdc *p_pdc,
		uint32_t ul_controls)
{
  401540:	b480      	push	{r7}
  401542:	b083      	sub	sp, #12
  401544:	af00      	add	r7, sp, #0
  401546:	6078      	str	r0, [r7, #4]
  401548:	6039      	str	r1, [r7, #0]
	/* Validate inputs. */
	Assert(p_pdc);
	
	p_pdc->PERIPH_PTCR =
			ul_controls & (PERIPH_PTCR_RXTDIS | PERIPH_PTCR_TXTDIS);
  40154a:	683a      	ldr	r2, [r7, #0]
  40154c:	f240 2302 	movw	r3, #514	; 0x202
  401550:	4013      	ands	r3, r2
		uint32_t ul_controls)
{
	/* Validate inputs. */
	Assert(p_pdc);
	
	p_pdc->PERIPH_PTCR =
  401552:	687a      	ldr	r2, [r7, #4]
  401554:	6213      	str	r3, [r2, #32]
			ul_controls & (PERIPH_PTCR_RXTDIS | PERIPH_PTCR_TXTDIS);
}
  401556:	bf00      	nop
  401558:	370c      	adds	r7, #12
  40155a:	46bd      	mov	sp, r7
  40155c:	bc80      	pop	{r7}
  40155e:	4770      	bx	lr

00401560 <pdc_read_rx_counter>:
 *
 * \return Receive Counter Register value.
 */
uint32_t pdc_read_rx_counter(
		Pdc *p_pdc)
{
  401560:	b480      	push	{r7}
  401562:	b083      	sub	sp, #12
  401564:	af00      	add	r7, sp, #0
  401566:	6078      	str	r0, [r7, #4]
	/* Validate inputs. */
	Assert(p_pdc);
	
	return p_pdc->PERIPH_RCR;
  401568:	687b      	ldr	r3, [r7, #4]
  40156a:	685b      	ldr	r3, [r3, #4]
}
  40156c:	4618      	mov	r0, r3
  40156e:	370c      	adds	r7, #12
  401570:	46bd      	mov	sp, r7
  401572:	bc80      	pop	{r7}
  401574:	4770      	bx	lr
  401576:	bf00      	nop

00401578 <pio_pull_up>:
 * \param ul_pull_up_enable Indicates if the pin(s) internal pull-up shall be
 * configured.
 */
void pio_pull_up(Pio *p_pio, const uint32_t ul_mask,
		const uint32_t ul_pull_up_enable)
{
  401578:	b480      	push	{r7}
  40157a:	b085      	sub	sp, #20
  40157c:	af00      	add	r7, sp, #0
  40157e:	60f8      	str	r0, [r7, #12]
  401580:	60b9      	str	r1, [r7, #8]
  401582:	607a      	str	r2, [r7, #4]
	/* Enable the pull-up(s) if necessary */
	if (ul_pull_up_enable) {
  401584:	687b      	ldr	r3, [r7, #4]
  401586:	2b00      	cmp	r3, #0
  401588:	d003      	beq.n	401592 <pio_pull_up+0x1a>
		p_pio->PIO_PUER = ul_mask;
  40158a:	68fb      	ldr	r3, [r7, #12]
  40158c:	68ba      	ldr	r2, [r7, #8]
  40158e:	665a      	str	r2, [r3, #100]	; 0x64
	} else {
		p_pio->PIO_PUDR = ul_mask;
	}
}
  401590:	e002      	b.n	401598 <pio_pull_up+0x20>
{
	/* Enable the pull-up(s) if necessary */
	if (ul_pull_up_enable) {
		p_pio->PIO_PUER = ul_mask;
	} else {
		p_pio->PIO_PUDR = ul_mask;
  401592:	68fb      	ldr	r3, [r7, #12]
  401594:	68ba      	ldr	r2, [r7, #8]
  401596:	661a      	str	r2, [r3, #96]	; 0x60
	}
}
  401598:	bf00      	nop
  40159a:	3714      	adds	r7, #20
  40159c:	46bd      	mov	sp, r7
  40159e:	bc80      	pop	{r7}
  4015a0:	4770      	bx	lr
  4015a2:	bf00      	nop

004015a4 <pio_set_peripheral>:
 * \param ul_type PIO type.
 * \param ul_mask Bitmask of one or more pin(s) to configure.
 */
void pio_set_peripheral(Pio *p_pio, const pio_type_t ul_type,
		const uint32_t ul_mask)
{
  4015a4:	b480      	push	{r7}
  4015a6:	b087      	sub	sp, #28
  4015a8:	af00      	add	r7, sp, #0
  4015aa:	60f8      	str	r0, [r7, #12]
  4015ac:	60b9      	str	r1, [r7, #8]
  4015ae:	607a      	str	r2, [r7, #4]
	uint32_t ul_sr;

	/* Disable interrupts on the pin(s) */
	p_pio->PIO_IDR = ul_mask;
  4015b0:	68fb      	ldr	r3, [r7, #12]
  4015b2:	687a      	ldr	r2, [r7, #4]
  4015b4:	645a      	str	r2, [r3, #68]	; 0x44

#if (SAM3S || SAM3N || SAM4S || SAM4E || SAM4N || SAM4C || SAMG || SAM4CP || SAM4CM || SAMV71 || SAMV70 || SAME70 || SAMS70)
	switch (ul_type) {
  4015b6:	68bb      	ldr	r3, [r7, #8]
  4015b8:	f1b3 5fc0 	cmp.w	r3, #402653184	; 0x18000000
  4015bc:	d04a      	beq.n	401654 <pio_set_peripheral+0xb0>
  4015be:	f1b3 5fc0 	cmp.w	r3, #402653184	; 0x18000000
  4015c2:	d808      	bhi.n	4015d6 <pio_set_peripheral+0x32>
  4015c4:	f1b3 6f00 	cmp.w	r3, #134217728	; 0x8000000
  4015c8:	d016      	beq.n	4015f8 <pio_set_peripheral+0x54>
  4015ca:	f1b3 5f80 	cmp.w	r3, #268435456	; 0x10000000
  4015ce:	d02c      	beq.n	40162a <pio_set_peripheral+0x86>
  4015d0:	2b00      	cmp	r3, #0
  4015d2:	d069      	beq.n	4016a8 <pio_set_peripheral+0x104>
  4015d4:	e064      	b.n	4016a0 <pio_set_peripheral+0xfc>
  4015d6:	f1b3 5f20 	cmp.w	r3, #671088640	; 0x28000000
  4015da:	d065      	beq.n	4016a8 <pio_set_peripheral+0x104>
  4015dc:	f1b3 5f20 	cmp.w	r3, #671088640	; 0x28000000
  4015e0:	d803      	bhi.n	4015ea <pio_set_peripheral+0x46>
  4015e2:	f1b3 5f00 	cmp.w	r3, #536870912	; 0x20000000
  4015e6:	d04a      	beq.n	40167e <pio_set_peripheral+0xda>
  4015e8:	e05a      	b.n	4016a0 <pio_set_peripheral+0xfc>
  4015ea:	f1b3 5f40 	cmp.w	r3, #805306368	; 0x30000000
  4015ee:	d05b      	beq.n	4016a8 <pio_set_peripheral+0x104>
  4015f0:	f1b3 5f60 	cmp.w	r3, #939524096	; 0x38000000
  4015f4:	d058      	beq.n	4016a8 <pio_set_peripheral+0x104>
  4015f6:	e053      	b.n	4016a0 <pio_set_peripheral+0xfc>
	case PIO_PERIPH_A:
		ul_sr = p_pio->PIO_ABCDSR[0];
  4015f8:	68fb      	ldr	r3, [r7, #12]
  4015fa:	6f1b      	ldr	r3, [r3, #112]	; 0x70
  4015fc:	617b      	str	r3, [r7, #20]
		p_pio->PIO_ABCDSR[0] &= (~ul_mask & ul_sr);
  4015fe:	68fb      	ldr	r3, [r7, #12]
  401600:	6f1a      	ldr	r2, [r3, #112]	; 0x70
  401602:	687b      	ldr	r3, [r7, #4]
  401604:	43d9      	mvns	r1, r3
  401606:	697b      	ldr	r3, [r7, #20]
  401608:	400b      	ands	r3, r1
  40160a:	401a      	ands	r2, r3
  40160c:	68fb      	ldr	r3, [r7, #12]
  40160e:	671a      	str	r2, [r3, #112]	; 0x70

		ul_sr = p_pio->PIO_ABCDSR[1];
  401610:	68fb      	ldr	r3, [r7, #12]
  401612:	6f5b      	ldr	r3, [r3, #116]	; 0x74
  401614:	617b      	str	r3, [r7, #20]
		p_pio->PIO_ABCDSR[1] &= (~ul_mask & ul_sr);
  401616:	68fb      	ldr	r3, [r7, #12]
  401618:	6f5a      	ldr	r2, [r3, #116]	; 0x74
  40161a:	687b      	ldr	r3, [r7, #4]
  40161c:	43d9      	mvns	r1, r3
  40161e:	697b      	ldr	r3, [r7, #20]
  401620:	400b      	ands	r3, r1
  401622:	401a      	ands	r2, r3
  401624:	68fb      	ldr	r3, [r7, #12]
  401626:	675a      	str	r2, [r3, #116]	; 0x74
		break;
  401628:	e03a      	b.n	4016a0 <pio_set_peripheral+0xfc>
	case PIO_PERIPH_B:
		ul_sr = p_pio->PIO_ABCDSR[0];
  40162a:	68fb      	ldr	r3, [r7, #12]
  40162c:	6f1b      	ldr	r3, [r3, #112]	; 0x70
  40162e:	617b      	str	r3, [r7, #20]
		p_pio->PIO_ABCDSR[0] = (ul_mask | ul_sr);
  401630:	687a      	ldr	r2, [r7, #4]
  401632:	697b      	ldr	r3, [r7, #20]
  401634:	431a      	orrs	r2, r3
  401636:	68fb      	ldr	r3, [r7, #12]
  401638:	671a      	str	r2, [r3, #112]	; 0x70

		ul_sr = p_pio->PIO_ABCDSR[1];
  40163a:	68fb      	ldr	r3, [r7, #12]
  40163c:	6f5b      	ldr	r3, [r3, #116]	; 0x74
  40163e:	617b      	str	r3, [r7, #20]
		p_pio->PIO_ABCDSR[1] &= (~ul_mask & ul_sr);
  401640:	68fb      	ldr	r3, [r7, #12]
  401642:	6f5a      	ldr	r2, [r3, #116]	; 0x74
  401644:	687b      	ldr	r3, [r7, #4]
  401646:	43d9      	mvns	r1, r3
  401648:	697b      	ldr	r3, [r7, #20]
  40164a:	400b      	ands	r3, r1
  40164c:	401a      	ands	r2, r3
  40164e:	68fb      	ldr	r3, [r7, #12]
  401650:	675a      	str	r2, [r3, #116]	; 0x74
		break;
  401652:	e025      	b.n	4016a0 <pio_set_peripheral+0xfc>
#if (!SAMG)
	case PIO_PERIPH_C:
		ul_sr = p_pio->PIO_ABCDSR[0];
  401654:	68fb      	ldr	r3, [r7, #12]
  401656:	6f1b      	ldr	r3, [r3, #112]	; 0x70
  401658:	617b      	str	r3, [r7, #20]
		p_pio->PIO_ABCDSR[0] &= (~ul_mask & ul_sr);
  40165a:	68fb      	ldr	r3, [r7, #12]
  40165c:	6f1a      	ldr	r2, [r3, #112]	; 0x70
  40165e:	687b      	ldr	r3, [r7, #4]
  401660:	43d9      	mvns	r1, r3
  401662:	697b      	ldr	r3, [r7, #20]
  401664:	400b      	ands	r3, r1
  401666:	401a      	ands	r2, r3
  401668:	68fb      	ldr	r3, [r7, #12]
  40166a:	671a      	str	r2, [r3, #112]	; 0x70

		ul_sr = p_pio->PIO_ABCDSR[1];
  40166c:	68fb      	ldr	r3, [r7, #12]
  40166e:	6f5b      	ldr	r3, [r3, #116]	; 0x74
  401670:	617b      	str	r3, [r7, #20]
		p_pio->PIO_ABCDSR[1] = (ul_mask | ul_sr);
  401672:	687a      	ldr	r2, [r7, #4]
  401674:	697b      	ldr	r3, [r7, #20]
  401676:	431a      	orrs	r2, r3
  401678:	68fb      	ldr	r3, [r7, #12]
  40167a:	675a      	str	r2, [r3, #116]	; 0x74
		break;
  40167c:	e010      	b.n	4016a0 <pio_set_peripheral+0xfc>
	case PIO_PERIPH_D:
		ul_sr = p_pio->PIO_ABCDSR[0];
  40167e:	68fb      	ldr	r3, [r7, #12]
  401680:	6f1b      	ldr	r3, [r3, #112]	; 0x70
  401682:	617b      	str	r3, [r7, #20]
		p_pio->PIO_ABCDSR[0] = (ul_mask | ul_sr);
  401684:	687a      	ldr	r2, [r7, #4]
  401686:	697b      	ldr	r3, [r7, #20]
  401688:	431a      	orrs	r2, r3
  40168a:	68fb      	ldr	r3, [r7, #12]
  40168c:	671a      	str	r2, [r3, #112]	; 0x70

		ul_sr = p_pio->PIO_ABCDSR[1];
  40168e:	68fb      	ldr	r3, [r7, #12]
  401690:	6f5b      	ldr	r3, [r3, #116]	; 0x74
  401692:	617b      	str	r3, [r7, #20]
		p_pio->PIO_ABCDSR[1] = (ul_mask | ul_sr);
  401694:	687a      	ldr	r2, [r7, #4]
  401696:	697b      	ldr	r3, [r7, #20]
  401698:	431a      	orrs	r2, r3
  40169a:	68fb      	ldr	r3, [r7, #12]
  40169c:	675a      	str	r2, [r3, #116]	; 0x74
		break;
  40169e:	bf00      	nop
#else
#error "Unsupported device"
#endif

	/* Remove the pins from under the control of PIO */
	p_pio->PIO_PDR = ul_mask;
  4016a0:	68fb      	ldr	r3, [r7, #12]
  4016a2:	687a      	ldr	r2, [r7, #4]
  4016a4:	605a      	str	r2, [r3, #4]
  4016a6:	e000      	b.n	4016aa <pio_set_peripheral+0x106>
		/* Other types are invalid in this function */
	case PIO_INPUT:
	case PIO_OUTPUT_0:
	case PIO_OUTPUT_1:
	case PIO_NOT_A_PIN:
		return;
  4016a8:	bf00      	nop
#error "Unsupported device"
#endif

	/* Remove the pins from under the control of PIO */
	p_pio->PIO_PDR = ul_mask;
}
  4016aa:	371c      	adds	r7, #28
  4016ac:	46bd      	mov	sp, r7
  4016ae:	bc80      	pop	{r7}
  4016b0:	4770      	bx	lr
  4016b2:	bf00      	nop

004016b4 <pio_set_input>:
 * \param ul_mask Bitmask indicating which pin(s) to configure as input(s).
 * \param ul_attribute PIO attribute(s).
 */
void pio_set_input(Pio *p_pio, const uint32_t ul_mask,
		const uint32_t ul_attribute)
{
  4016b4:	b580      	push	{r7, lr}
  4016b6:	b084      	sub	sp, #16
  4016b8:	af00      	add	r7, sp, #0
  4016ba:	60f8      	str	r0, [r7, #12]
  4016bc:	60b9      	str	r1, [r7, #8]
  4016be:	607a      	str	r2, [r7, #4]
	pio_disable_interrupt(p_pio, ul_mask);
  4016c0:	68b9      	ldr	r1, [r7, #8]
  4016c2:	68f8      	ldr	r0, [r7, #12]
  4016c4:	4b19      	ldr	r3, [pc, #100]	; (40172c <pio_set_input+0x78>)
  4016c6:	4798      	blx	r3
	pio_pull_up(p_pio, ul_mask, ul_attribute & PIO_PULLUP);
  4016c8:	687b      	ldr	r3, [r7, #4]
  4016ca:	f003 0301 	and.w	r3, r3, #1
  4016ce:	461a      	mov	r2, r3
  4016d0:	68b9      	ldr	r1, [r7, #8]
  4016d2:	68f8      	ldr	r0, [r7, #12]
  4016d4:	4b16      	ldr	r3, [pc, #88]	; (401730 <pio_set_input+0x7c>)
  4016d6:	4798      	blx	r3

	/* Enable Input Filter if necessary */
	if (ul_attribute & (PIO_DEGLITCH | PIO_DEBOUNCE)) {
  4016d8:	687b      	ldr	r3, [r7, #4]
  4016da:	f003 030a 	and.w	r3, r3, #10
  4016de:	2b00      	cmp	r3, #0
  4016e0:	d003      	beq.n	4016ea <pio_set_input+0x36>
		p_pio->PIO_IFER = ul_mask;
  4016e2:	68fb      	ldr	r3, [r7, #12]
  4016e4:	68ba      	ldr	r2, [r7, #8]
  4016e6:	621a      	str	r2, [r3, #32]
  4016e8:	e002      	b.n	4016f0 <pio_set_input+0x3c>
	} else {
		p_pio->PIO_IFDR = ul_mask;
  4016ea:	68fb      	ldr	r3, [r7, #12]
  4016ec:	68ba      	ldr	r2, [r7, #8]
  4016ee:	625a      	str	r2, [r3, #36]	; 0x24
	}

#if (SAM3S || SAM3N || SAM4S || SAM4E || SAM4N || SAM4C || SAMG || SAM4CP || SAM4CM || SAMV71 || SAMV70 || SAME70 || SAMS70)
	/* Enable de-glitch or de-bounce if necessary */
	if (ul_attribute & PIO_DEGLITCH) {
  4016f0:	687b      	ldr	r3, [r7, #4]
  4016f2:	f003 0302 	and.w	r3, r3, #2
  4016f6:	2b00      	cmp	r3, #0
  4016f8:	d004      	beq.n	401704 <pio_set_input+0x50>
		p_pio->PIO_IFSCDR = ul_mask;
  4016fa:	68fb      	ldr	r3, [r7, #12]
  4016fc:	68ba      	ldr	r2, [r7, #8]
  4016fe:	f8c3 2080 	str.w	r2, [r3, #128]	; 0x80
  401702:	e008      	b.n	401716 <pio_set_input+0x62>
	} else {
		if (ul_attribute & PIO_DEBOUNCE) {
  401704:	687b      	ldr	r3, [r7, #4]
  401706:	f003 0308 	and.w	r3, r3, #8
  40170a:	2b00      	cmp	r3, #0
  40170c:	d003      	beq.n	401716 <pio_set_input+0x62>
			p_pio->PIO_IFSCER = ul_mask;
  40170e:	68fb      	ldr	r3, [r7, #12]
  401710:	68ba      	ldr	r2, [r7, #8]
  401712:	f8c3 2084 	str.w	r2, [r3, #132]	; 0x84
#else
#error "Unsupported device"
#endif

	/* Configure pin as input */
	p_pio->PIO_ODR = ul_mask;
  401716:	68fb      	ldr	r3, [r7, #12]
  401718:	68ba      	ldr	r2, [r7, #8]
  40171a:	615a      	str	r2, [r3, #20]
	p_pio->PIO_PER = ul_mask;
  40171c:	68fb      	ldr	r3, [r7, #12]
  40171e:	68ba      	ldr	r2, [r7, #8]
  401720:	601a      	str	r2, [r3, #0]
}
  401722:	bf00      	nop
  401724:	3710      	adds	r7, #16
  401726:	46bd      	mov	sp, r7
  401728:	bd80      	pop	{r7, pc}
  40172a:	bf00      	nop
  40172c:	00401799 	.word	0x00401799
  401730:	00401579 	.word	0x00401579

00401734 <pio_set_output>:
 */
void pio_set_output(Pio *p_pio, const uint32_t ul_mask,
		const uint32_t ul_default_level,
		const uint32_t ul_multidrive_enable,
		const uint32_t ul_pull_up_enable)
{
  401734:	b580      	push	{r7, lr}
  401736:	b084      	sub	sp, #16
  401738:	af00      	add	r7, sp, #0
  40173a:	60f8      	str	r0, [r7, #12]
  40173c:	60b9      	str	r1, [r7, #8]
  40173e:	607a      	str	r2, [r7, #4]
  401740:	603b      	str	r3, [r7, #0]
	pio_disable_interrupt(p_pio, ul_mask);
  401742:	68b9      	ldr	r1, [r7, #8]
  401744:	68f8      	ldr	r0, [r7, #12]
  401746:	4b12      	ldr	r3, [pc, #72]	; (401790 <pio_set_output+0x5c>)
  401748:	4798      	blx	r3
	pio_pull_up(p_pio, ul_mask, ul_pull_up_enable);
  40174a:	69ba      	ldr	r2, [r7, #24]
  40174c:	68b9      	ldr	r1, [r7, #8]
  40174e:	68f8      	ldr	r0, [r7, #12]
  401750:	4b10      	ldr	r3, [pc, #64]	; (401794 <pio_set_output+0x60>)
  401752:	4798      	blx	r3

	/* Enable multi-drive if necessary */
	if (ul_multidrive_enable) {
  401754:	683b      	ldr	r3, [r7, #0]
  401756:	2b00      	cmp	r3, #0
  401758:	d003      	beq.n	401762 <pio_set_output+0x2e>
		p_pio->PIO_MDER = ul_mask;
  40175a:	68fb      	ldr	r3, [r7, #12]
  40175c:	68ba      	ldr	r2, [r7, #8]
  40175e:	651a      	str	r2, [r3, #80]	; 0x50
  401760:	e002      	b.n	401768 <pio_set_output+0x34>
	} else {
		p_pio->PIO_MDDR = ul_mask;
  401762:	68fb      	ldr	r3, [r7, #12]
  401764:	68ba      	ldr	r2, [r7, #8]
  401766:	655a      	str	r2, [r3, #84]	; 0x54
	}

	/* Set default value */
	if (ul_default_level) {
  401768:	687b      	ldr	r3, [r7, #4]
  40176a:	2b00      	cmp	r3, #0
  40176c:	d003      	beq.n	401776 <pio_set_output+0x42>
		p_pio->PIO_SODR = ul_mask;
  40176e:	68fb      	ldr	r3, [r7, #12]
  401770:	68ba      	ldr	r2, [r7, #8]
  401772:	631a      	str	r2, [r3, #48]	; 0x30
  401774:	e002      	b.n	40177c <pio_set_output+0x48>
	} else {
		p_pio->PIO_CODR = ul_mask;
  401776:	68fb      	ldr	r3, [r7, #12]
  401778:	68ba      	ldr	r2, [r7, #8]
  40177a:	635a      	str	r2, [r3, #52]	; 0x34
	}

	/* Configure pin(s) as output(s) */
	p_pio->PIO_OER = ul_mask;
  40177c:	68fb      	ldr	r3, [r7, #12]
  40177e:	68ba      	ldr	r2, [r7, #8]
  401780:	611a      	str	r2, [r3, #16]
	p_pio->PIO_PER = ul_mask;
  401782:	68fb      	ldr	r3, [r7, #12]
  401784:	68ba      	ldr	r2, [r7, #8]
  401786:	601a      	str	r2, [r3, #0]
}
  401788:	bf00      	nop
  40178a:	3710      	adds	r7, #16
  40178c:	46bd      	mov	sp, r7
  40178e:	bd80      	pop	{r7, pc}
  401790:	00401799 	.word	0x00401799
  401794:	00401579 	.word	0x00401579

00401798 <pio_disable_interrupt>:
 *
 * \param p_pio Pointer to a PIO instance.
 * \param ul_mask Interrupt sources bit map.
 */
void pio_disable_interrupt(Pio *p_pio, const uint32_t ul_mask)
{
  401798:	b480      	push	{r7}
  40179a:	b083      	sub	sp, #12
  40179c:	af00      	add	r7, sp, #0
  40179e:	6078      	str	r0, [r7, #4]
  4017a0:	6039      	str	r1, [r7, #0]
	p_pio->PIO_IDR = ul_mask;
  4017a2:	687b      	ldr	r3, [r7, #4]
  4017a4:	683a      	ldr	r2, [r7, #0]
  4017a6:	645a      	str	r2, [r3, #68]	; 0x44
}
  4017a8:	bf00      	nop
  4017aa:	370c      	adds	r7, #12
  4017ac:	46bd      	mov	sp, r7
  4017ae:	bc80      	pop	{r7}
  4017b0:	4770      	bx	lr
  4017b2:	bf00      	nop

004017b4 <pio_get_interrupt_status>:
 * \param p_pio Pointer to a PIO instance.
 *
 * \return The interrupt status value.
 */
uint32_t pio_get_interrupt_status(const Pio *p_pio)
{
  4017b4:	b480      	push	{r7}
  4017b6:	b083      	sub	sp, #12
  4017b8:	af00      	add	r7, sp, #0
  4017ba:	6078      	str	r0, [r7, #4]
	return p_pio->PIO_ISR;
  4017bc:	687b      	ldr	r3, [r7, #4]
  4017be:	6cdb      	ldr	r3, [r3, #76]	; 0x4c
}
  4017c0:	4618      	mov	r0, r3
  4017c2:	370c      	adds	r7, #12
  4017c4:	46bd      	mov	sp, r7
  4017c6:	bc80      	pop	{r7}
  4017c8:	4770      	bx	lr
  4017ca:	bf00      	nop

004017cc <pio_get_interrupt_mask>:
 * \param p_pio Pointer to a PIO instance.
 *
 * \return The interrupt mask value.
 */
uint32_t pio_get_interrupt_mask(const Pio *p_pio)
{
  4017cc:	b480      	push	{r7}
  4017ce:	b083      	sub	sp, #12
  4017d0:	af00      	add	r7, sp, #0
  4017d2:	6078      	str	r0, [r7, #4]
	return p_pio->PIO_IMR;
  4017d4:	687b      	ldr	r3, [r7, #4]
  4017d6:	6c9b      	ldr	r3, [r3, #72]	; 0x48
}
  4017d8:	4618      	mov	r0, r3
  4017da:	370c      	adds	r7, #12
  4017dc:	46bd      	mov	sp, r7
  4017de:	bc80      	pop	{r7}
  4017e0:	4770      	bx	lr
  4017e2:	bf00      	nop

004017e4 <pio_get_pin_value>:
 *       level.
 * \note If pin is input: PIOx must be clocked to sample the signal.
 *       See PMC driver.
 */
uint32_t pio_get_pin_value(uint32_t ul_pin)
{
  4017e4:	b580      	push	{r7, lr}
  4017e6:	b084      	sub	sp, #16
  4017e8:	af00      	add	r7, sp, #0
  4017ea:	6078      	str	r0, [r7, #4]
	Pio *p_pio = pio_get_pin_group(ul_pin);
  4017ec:	6878      	ldr	r0, [r7, #4]
  4017ee:	4b08      	ldr	r3, [pc, #32]	; (401810 <pio_get_pin_value+0x2c>)
  4017f0:	4798      	blx	r3
  4017f2:	60f8      	str	r0, [r7, #12]

	return (p_pio->PIO_PDSR >> (ul_pin & 0x1F)) & 1;
  4017f4:	68fb      	ldr	r3, [r7, #12]
  4017f6:	6bda      	ldr	r2, [r3, #60]	; 0x3c
  4017f8:	687b      	ldr	r3, [r7, #4]
  4017fa:	f003 031f 	and.w	r3, r3, #31
  4017fe:	fa22 f303 	lsr.w	r3, r2, r3
  401802:	f003 0301 	and.w	r3, r3, #1
}
  401806:	4618      	mov	r0, r3
  401808:	3710      	adds	r7, #16
  40180a:	46bd      	mov	sp, r7
  40180c:	bd80      	pop	{r7, pc}
  40180e:	bf00      	nop
  401810:	00401b51 	.word	0x00401b51

00401814 <pio_set_pin_high>:
 * \param ul_pin The pin index.
 *
 * \note The function \ref pio_configure_pin must be called beforehand.
 */
void pio_set_pin_high(uint32_t ul_pin)
{
  401814:	b580      	push	{r7, lr}
  401816:	b084      	sub	sp, #16
  401818:	af00      	add	r7, sp, #0
  40181a:	6078      	str	r0, [r7, #4]
	Pio *p_pio = pio_get_pin_group(ul_pin);
  40181c:	6878      	ldr	r0, [r7, #4]
  40181e:	4b08      	ldr	r3, [pc, #32]	; (401840 <pio_set_pin_high+0x2c>)
  401820:	4798      	blx	r3
  401822:	60f8      	str	r0, [r7, #12]

	/* Value to be driven on the I/O line: 1. */
	p_pio->PIO_SODR = 1 << (ul_pin & 0x1F);
  401824:	687b      	ldr	r3, [r7, #4]
  401826:	f003 031f 	and.w	r3, r3, #31
  40182a:	2201      	movs	r2, #1
  40182c:	fa02 f303 	lsl.w	r3, r2, r3
  401830:	461a      	mov	r2, r3
  401832:	68fb      	ldr	r3, [r7, #12]
  401834:	631a      	str	r2, [r3, #48]	; 0x30
}
  401836:	bf00      	nop
  401838:	3710      	adds	r7, #16
  40183a:	46bd      	mov	sp, r7
  40183c:	bd80      	pop	{r7, pc}
  40183e:	bf00      	nop
  401840:	00401b51 	.word	0x00401b51

00401844 <pio_set_pin_low>:
 * \param ul_pin The pin index.
 *
 * \note The function \ref pio_configure_pin must be called before.
 */
void pio_set_pin_low(uint32_t ul_pin)
{
  401844:	b580      	push	{r7, lr}
  401846:	b084      	sub	sp, #16
  401848:	af00      	add	r7, sp, #0
  40184a:	6078      	str	r0, [r7, #4]
	Pio *p_pio = pio_get_pin_group(ul_pin);
  40184c:	6878      	ldr	r0, [r7, #4]
  40184e:	4b08      	ldr	r3, [pc, #32]	; (401870 <pio_set_pin_low+0x2c>)
  401850:	4798      	blx	r3
  401852:	60f8      	str	r0, [r7, #12]

	/* Value to be driven on the I/O line: 0. */
	p_pio->PIO_CODR = 1 << (ul_pin & 0x1F);
  401854:	687b      	ldr	r3, [r7, #4]
  401856:	f003 031f 	and.w	r3, r3, #31
  40185a:	2201      	movs	r2, #1
  40185c:	fa02 f303 	lsl.w	r3, r2, r3
  401860:	461a      	mov	r2, r3
  401862:	68fb      	ldr	r3, [r7, #12]
  401864:	635a      	str	r2, [r3, #52]	; 0x34
}
  401866:	bf00      	nop
  401868:	3710      	adds	r7, #16
  40186a:	46bd      	mov	sp, r7
  40186c:	bd80      	pop	{r7, pc}
  40186e:	bf00      	nop
  401870:	00401b51 	.word	0x00401b51

00401874 <pio_configure_pin>:
 * \param ul_flags Pins attributes.
 *
 * \return Whether the pin(s) have been configured properly.
 */
uint32_t pio_configure_pin(uint32_t ul_pin, const uint32_t ul_flags)
{
  401874:	b590      	push	{r4, r7, lr}
  401876:	b087      	sub	sp, #28
  401878:	af02      	add	r7, sp, #8
  40187a:	6078      	str	r0, [r7, #4]
  40187c:	6039      	str	r1, [r7, #0]
	Pio *p_pio = pio_get_pin_group(ul_pin);
  40187e:	6878      	ldr	r0, [r7, #4]
  401880:	4b63      	ldr	r3, [pc, #396]	; (401a10 <pio_configure_pin+0x19c>)
  401882:	4798      	blx	r3
  401884:	60f8      	str	r0, [r7, #12]

	/* Configure pins */
	switch (ul_flags & PIO_TYPE_Msk) {
  401886:	683b      	ldr	r3, [r7, #0]
  401888:	f003 43f0 	and.w	r3, r3, #2013265920	; 0x78000000
  40188c:	f1b3 5f00 	cmp.w	r3, #536870912	; 0x20000000
  401890:	d067      	beq.n	401962 <pio_configure_pin+0xee>
  401892:	f1b3 5f00 	cmp.w	r3, #536870912	; 0x20000000
  401896:	d809      	bhi.n	4018ac <pio_configure_pin+0x38>
  401898:	f1b3 5f80 	cmp.w	r3, #268435456	; 0x10000000
  40189c:	d02b      	beq.n	4018f6 <pio_configure_pin+0x82>
  40189e:	f1b3 5fc0 	cmp.w	r3, #402653184	; 0x18000000
  4018a2:	d043      	beq.n	40192c <pio_configure_pin+0xb8>
  4018a4:	f1b3 6f00 	cmp.w	r3, #134217728	; 0x8000000
  4018a8:	d00a      	beq.n	4018c0 <pio_configure_pin+0x4c>
  4018aa:	e0a9      	b.n	401a00 <pio_configure_pin+0x18c>
  4018ac:	f1b3 5f40 	cmp.w	r3, #805306368	; 0x30000000
  4018b0:	d07e      	beq.n	4019b0 <pio_configure_pin+0x13c>
  4018b2:	f1b3 5f60 	cmp.w	r3, #939524096	; 0x38000000
  4018b6:	d07b      	beq.n	4019b0 <pio_configure_pin+0x13c>
  4018b8:	f1b3 5f20 	cmp.w	r3, #671088640	; 0x28000000
  4018bc:	d06c      	beq.n	401998 <pio_configure_pin+0x124>
  4018be:	e09f      	b.n	401a00 <pio_configure_pin+0x18c>
	case PIO_TYPE_PIO_PERIPH_A:
		pio_set_peripheral(p_pio, PIO_PERIPH_A, (1 << (ul_pin & 0x1F)));
  4018c0:	687b      	ldr	r3, [r7, #4]
  4018c2:	f003 031f 	and.w	r3, r3, #31
  4018c6:	2201      	movs	r2, #1
  4018c8:	fa02 f303 	lsl.w	r3, r2, r3
  4018cc:	461a      	mov	r2, r3
  4018ce:	f04f 6100 	mov.w	r1, #134217728	; 0x8000000
  4018d2:	68f8      	ldr	r0, [r7, #12]
  4018d4:	4b4f      	ldr	r3, [pc, #316]	; (401a14 <pio_configure_pin+0x1a0>)
  4018d6:	4798      	blx	r3
		pio_pull_up(p_pio, (1 << (ul_pin & 0x1F)),
  4018d8:	687b      	ldr	r3, [r7, #4]
  4018da:	f003 031f 	and.w	r3, r3, #31
  4018de:	2201      	movs	r2, #1
  4018e0:	fa02 f303 	lsl.w	r3, r2, r3
  4018e4:	4619      	mov	r1, r3
  4018e6:	683b      	ldr	r3, [r7, #0]
  4018e8:	f003 0301 	and.w	r3, r3, #1
  4018ec:	461a      	mov	r2, r3
  4018ee:	68f8      	ldr	r0, [r7, #12]
  4018f0:	4b49      	ldr	r3, [pc, #292]	; (401a18 <pio_configure_pin+0x1a4>)
  4018f2:	4798      	blx	r3
				(ul_flags & PIO_PULLUP));
		break;
  4018f4:	e086      	b.n	401a04 <pio_configure_pin+0x190>
	case PIO_TYPE_PIO_PERIPH_B:
		pio_set_peripheral(p_pio, PIO_PERIPH_B, (1 << (ul_pin & 0x1F)));
  4018f6:	687b      	ldr	r3, [r7, #4]
  4018f8:	f003 031f 	and.w	r3, r3, #31
  4018fc:	2201      	movs	r2, #1
  4018fe:	fa02 f303 	lsl.w	r3, r2, r3
  401902:	461a      	mov	r2, r3
  401904:	f04f 5180 	mov.w	r1, #268435456	; 0x10000000
  401908:	68f8      	ldr	r0, [r7, #12]
  40190a:	4b42      	ldr	r3, [pc, #264]	; (401a14 <pio_configure_pin+0x1a0>)
  40190c:	4798      	blx	r3
		pio_pull_up(p_pio, (1 << (ul_pin & 0x1F)),
  40190e:	687b      	ldr	r3, [r7, #4]
  401910:	f003 031f 	and.w	r3, r3, #31
  401914:	2201      	movs	r2, #1
  401916:	fa02 f303 	lsl.w	r3, r2, r3
  40191a:	4619      	mov	r1, r3
  40191c:	683b      	ldr	r3, [r7, #0]
  40191e:	f003 0301 	and.w	r3, r3, #1
  401922:	461a      	mov	r2, r3
  401924:	68f8      	ldr	r0, [r7, #12]
  401926:	4b3c      	ldr	r3, [pc, #240]	; (401a18 <pio_configure_pin+0x1a4>)
  401928:	4798      	blx	r3
				(ul_flags & PIO_PULLUP));
		break;
  40192a:	e06b      	b.n	401a04 <pio_configure_pin+0x190>
#if (SAM3S || SAM3N || SAM4S || SAM4E || SAM4N || SAM4C || SAM4CP || SAM4CM || SAMV71 || SAMV70 || SAME70 || SAMS70)
	case PIO_TYPE_PIO_PERIPH_C:
		pio_set_peripheral(p_pio, PIO_PERIPH_C, (1 << (ul_pin & 0x1F)));
  40192c:	687b      	ldr	r3, [r7, #4]
  40192e:	f003 031f 	and.w	r3, r3, #31
  401932:	2201      	movs	r2, #1
  401934:	fa02 f303 	lsl.w	r3, r2, r3
  401938:	461a      	mov	r2, r3
  40193a:	f04f 51c0 	mov.w	r1, #402653184	; 0x18000000
  40193e:	68f8      	ldr	r0, [r7, #12]
  401940:	4b34      	ldr	r3, [pc, #208]	; (401a14 <pio_configure_pin+0x1a0>)
  401942:	4798      	blx	r3
		pio_pull_up(p_pio, (1 << (ul_pin & 0x1F)),
  401944:	687b      	ldr	r3, [r7, #4]
  401946:	f003 031f 	and.w	r3, r3, #31
  40194a:	2201      	movs	r2, #1
  40194c:	fa02 f303 	lsl.w	r3, r2, r3
  401950:	4619      	mov	r1, r3
  401952:	683b      	ldr	r3, [r7, #0]
  401954:	f003 0301 	and.w	r3, r3, #1
  401958:	461a      	mov	r2, r3
  40195a:	68f8      	ldr	r0, [r7, #12]
  40195c:	4b2e      	ldr	r3, [pc, #184]	; (401a18 <pio_configure_pin+0x1a4>)
  40195e:	4798      	blx	r3
				(ul_flags & PIO_PULLUP));
		break;
  401960:	e050      	b.n	401a04 <pio_configure_pin+0x190>
	case PIO_TYPE_PIO_PERIPH_D:
		pio_set_peripheral(p_pio, PIO_PERIPH_D, (1 << (ul_pin & 0x1F)));
  401962:	687b      	ldr	r3, [r7, #4]
  401964:	f003 031f 	and.w	r3, r3, #31
  401968:	2201      	movs	r2, #1
  40196a:	fa02 f303 	lsl.w	r3, r2, r3
  40196e:	461a      	mov	r2, r3
  401970:	f04f 5100 	mov.w	r1, #536870912	; 0x20000000
  401974:	68f8      	ldr	r0, [r7, #12]
  401976:	4b27      	ldr	r3, [pc, #156]	; (401a14 <pio_configure_pin+0x1a0>)
  401978:	4798      	blx	r3
		pio_pull_up(p_pio, (1 << (ul_pin & 0x1F)),
  40197a:	687b      	ldr	r3, [r7, #4]
  40197c:	f003 031f 	and.w	r3, r3, #31
  401980:	2201      	movs	r2, #1
  401982:	fa02 f303 	lsl.w	r3, r2, r3
  401986:	4619      	mov	r1, r3
  401988:	683b      	ldr	r3, [r7, #0]
  40198a:	f003 0301 	and.w	r3, r3, #1
  40198e:	461a      	mov	r2, r3
  401990:	68f8      	ldr	r0, [r7, #12]
  401992:	4b21      	ldr	r3, [pc, #132]	; (401a18 <pio_configure_pin+0x1a4>)
  401994:	4798      	blx	r3
				(ul_flags & PIO_PULLUP));
		break;
  401996:	e035      	b.n	401a04 <pio_configure_pin+0x190>
#endif

	case PIO_TYPE_PIO_INPUT:
		pio_set_input(p_pio, (1 << (ul_pin & 0x1F)), ul_flags);
  401998:	687b      	ldr	r3, [r7, #4]
  40199a:	f003 031f 	and.w	r3, r3, #31
  40199e:	2201      	movs	r2, #1
  4019a0:	fa02 f303 	lsl.w	r3, r2, r3
  4019a4:	683a      	ldr	r2, [r7, #0]
  4019a6:	4619      	mov	r1, r3
  4019a8:	68f8      	ldr	r0, [r7, #12]
  4019aa:	4b1c      	ldr	r3, [pc, #112]	; (401a1c <pio_configure_pin+0x1a8>)
  4019ac:	4798      	blx	r3
		break;
  4019ae:	e029      	b.n	401a04 <pio_configure_pin+0x190>

	case PIO_TYPE_PIO_OUTPUT_0:
	case PIO_TYPE_PIO_OUTPUT_1:
		pio_set_output(p_pio, (1 << (ul_pin & 0x1F)),
  4019b0:	687b      	ldr	r3, [r7, #4]
  4019b2:	f003 031f 	and.w	r3, r3, #31
  4019b6:	2201      	movs	r2, #1
  4019b8:	fa02 f303 	lsl.w	r3, r2, r3
  4019bc:	4619      	mov	r1, r3
				((ul_flags & PIO_TYPE_PIO_OUTPUT_1)
  4019be:	683b      	ldr	r3, [r7, #0]
  4019c0:	f003 5360 	and.w	r3, r3, #939524096	; 0x38000000
		pio_set_input(p_pio, (1 << (ul_pin & 0x1F)), ul_flags);
		break;

	case PIO_TYPE_PIO_OUTPUT_0:
	case PIO_TYPE_PIO_OUTPUT_1:
		pio_set_output(p_pio, (1 << (ul_pin & 0x1F)),
  4019c4:	f1b3 5f60 	cmp.w	r3, #939524096	; 0x38000000
  4019c8:	bf0c      	ite	eq
  4019ca:	2301      	moveq	r3, #1
  4019cc:	2300      	movne	r3, #0
  4019ce:	b2db      	uxtb	r3, r3
  4019d0:	461a      	mov	r2, r3
				((ul_flags & PIO_TYPE_PIO_OUTPUT_1)
				== PIO_TYPE_PIO_OUTPUT_1) ? 1 : 0,
				(ul_flags & PIO_OPENDRAIN) ? 1 : 0,
  4019d2:	683b      	ldr	r3, [r7, #0]
  4019d4:	f003 0304 	and.w	r3, r3, #4
		pio_set_input(p_pio, (1 << (ul_pin & 0x1F)), ul_flags);
		break;

	case PIO_TYPE_PIO_OUTPUT_0:
	case PIO_TYPE_PIO_OUTPUT_1:
		pio_set_output(p_pio, (1 << (ul_pin & 0x1F)),
  4019d8:	2b00      	cmp	r3, #0
  4019da:	bf14      	ite	ne
  4019dc:	2301      	movne	r3, #1
  4019de:	2300      	moveq	r3, #0
  4019e0:	b2db      	uxtb	r3, r3
  4019e2:	4618      	mov	r0, r3
				((ul_flags & PIO_TYPE_PIO_OUTPUT_1)
				== PIO_TYPE_PIO_OUTPUT_1) ? 1 : 0,
				(ul_flags & PIO_OPENDRAIN) ? 1 : 0,
				(ul_flags & PIO_PULLUP) ? 1 : 0);
  4019e4:	683b      	ldr	r3, [r7, #0]
  4019e6:	f003 0301 	and.w	r3, r3, #1
		pio_set_input(p_pio, (1 << (ul_pin & 0x1F)), ul_flags);
		break;

	case PIO_TYPE_PIO_OUTPUT_0:
	case PIO_TYPE_PIO_OUTPUT_1:
		pio_set_output(p_pio, (1 << (ul_pin & 0x1F)),
  4019ea:	2b00      	cmp	r3, #0
  4019ec:	bf14      	ite	ne
  4019ee:	2301      	movne	r3, #1
  4019f0:	2300      	moveq	r3, #0
  4019f2:	b2db      	uxtb	r3, r3
  4019f4:	9300      	str	r3, [sp, #0]
  4019f6:	4603      	mov	r3, r0
  4019f8:	68f8      	ldr	r0, [r7, #12]
  4019fa:	4c09      	ldr	r4, [pc, #36]	; (401a20 <pio_configure_pin+0x1ac>)
  4019fc:	47a0      	blx	r4
				((ul_flags & PIO_TYPE_PIO_OUTPUT_1)
				== PIO_TYPE_PIO_OUTPUT_1) ? 1 : 0,
				(ul_flags & PIO_OPENDRAIN) ? 1 : 0,
				(ul_flags & PIO_PULLUP) ? 1 : 0);
		break;
  4019fe:	e001      	b.n	401a04 <pio_configure_pin+0x190>

	default:
		return 0;
  401a00:	2300      	movs	r3, #0
  401a02:	e000      	b.n	401a06 <pio_configure_pin+0x192>
	}

	return 1;
  401a04:	2301      	movs	r3, #1
}
  401a06:	4618      	mov	r0, r3
  401a08:	3714      	adds	r7, #20
  401a0a:	46bd      	mov	sp, r7
  401a0c:	bd90      	pop	{r4, r7, pc}
  401a0e:	bf00      	nop
  401a10:	00401b51 	.word	0x00401b51
  401a14:	004015a5 	.word	0x004015a5
  401a18:	00401579 	.word	0x00401579
  401a1c:	004016b5 	.word	0x004016b5
  401a20:	00401735 	.word	0x00401735

00401a24 <pio_configure_pin_group>:
 *
 * \return Whether the pin(s) have been configured properly.
 */
uint32_t pio_configure_pin_group(Pio *p_pio,
		uint32_t ul_mask, const uint32_t ul_flags)
{
  401a24:	b590      	push	{r4, r7, lr}
  401a26:	b087      	sub	sp, #28
  401a28:	af02      	add	r7, sp, #8
  401a2a:	60f8      	str	r0, [r7, #12]
  401a2c:	60b9      	str	r1, [r7, #8]
  401a2e:	607a      	str	r2, [r7, #4]
	/* Configure pins */
	switch (ul_flags & PIO_TYPE_Msk) {
  401a30:	687b      	ldr	r3, [r7, #4]
  401a32:	f003 43f0 	and.w	r3, r3, #2013265920	; 0x78000000
  401a36:	f1b3 5f00 	cmp.w	r3, #536870912	; 0x20000000
  401a3a:	d043      	beq.n	401ac4 <pio_configure_pin_group+0xa0>
  401a3c:	f1b3 5f00 	cmp.w	r3, #536870912	; 0x20000000
  401a40:	d809      	bhi.n	401a56 <pio_configure_pin_group+0x32>
  401a42:	f1b3 5f80 	cmp.w	r3, #268435456	; 0x10000000
  401a46:	d01f      	beq.n	401a88 <pio_configure_pin_group+0x64>
  401a48:	f1b3 5fc0 	cmp.w	r3, #402653184	; 0x18000000
  401a4c:	d02b      	beq.n	401aa6 <pio_configure_pin_group+0x82>
  401a4e:	f1b3 6f00 	cmp.w	r3, #134217728	; 0x8000000
  401a52:	d00a      	beq.n	401a6a <pio_configure_pin_group+0x46>
  401a54:	e06d      	b.n	401b32 <pio_configure_pin_group+0x10e>
  401a56:	f1b3 5f40 	cmp.w	r3, #805306368	; 0x30000000
  401a5a:	d048      	beq.n	401aee <pio_configure_pin_group+0xca>
  401a5c:	f1b3 5f60 	cmp.w	r3, #939524096	; 0x38000000
  401a60:	d045      	beq.n	401aee <pio_configure_pin_group+0xca>
  401a62:	f1b3 5f20 	cmp.w	r3, #671088640	; 0x28000000
  401a66:	d03c      	beq.n	401ae2 <pio_configure_pin_group+0xbe>
  401a68:	e063      	b.n	401b32 <pio_configure_pin_group+0x10e>
	case PIO_TYPE_PIO_PERIPH_A:
		pio_set_peripheral(p_pio, PIO_PERIPH_A, ul_mask);
  401a6a:	68ba      	ldr	r2, [r7, #8]
  401a6c:	f04f 6100 	mov.w	r1, #134217728	; 0x8000000
  401a70:	68f8      	ldr	r0, [r7, #12]
  401a72:	4b33      	ldr	r3, [pc, #204]	; (401b40 <pio_configure_pin_group+0x11c>)
  401a74:	4798      	blx	r3
		pio_pull_up(p_pio, ul_mask, (ul_flags & PIO_PULLUP));
  401a76:	687b      	ldr	r3, [r7, #4]
  401a78:	f003 0301 	and.w	r3, r3, #1
  401a7c:	461a      	mov	r2, r3
  401a7e:	68b9      	ldr	r1, [r7, #8]
  401a80:	68f8      	ldr	r0, [r7, #12]
  401a82:	4b30      	ldr	r3, [pc, #192]	; (401b44 <pio_configure_pin_group+0x120>)
  401a84:	4798      	blx	r3
		break;
  401a86:	e056      	b.n	401b36 <pio_configure_pin_group+0x112>
	case PIO_TYPE_PIO_PERIPH_B:
		pio_set_peripheral(p_pio, PIO_PERIPH_B, ul_mask);
  401a88:	68ba      	ldr	r2, [r7, #8]
  401a8a:	f04f 5180 	mov.w	r1, #268435456	; 0x10000000
  401a8e:	68f8      	ldr	r0, [r7, #12]
  401a90:	4b2b      	ldr	r3, [pc, #172]	; (401b40 <pio_configure_pin_group+0x11c>)
  401a92:	4798      	blx	r3
		pio_pull_up(p_pio, ul_mask, (ul_flags & PIO_PULLUP));
  401a94:	687b      	ldr	r3, [r7, #4]
  401a96:	f003 0301 	and.w	r3, r3, #1
  401a9a:	461a      	mov	r2, r3
  401a9c:	68b9      	ldr	r1, [r7, #8]
  401a9e:	68f8      	ldr	r0, [r7, #12]
  401aa0:	4b28      	ldr	r3, [pc, #160]	; (401b44 <pio_configure_pin_group+0x120>)
  401aa2:	4798      	blx	r3
		break;
  401aa4:	e047      	b.n	401b36 <pio_configure_pin_group+0x112>
#if (SAM3S || SAM3N || SAM4S || SAM4E || SAM4N || SAM4C || SAM4CP || SAM4CM || SAMV71 || SAMV70 || SAME70 || SAMS70)
	case PIO_TYPE_PIO_PERIPH_C:
		pio_set_peripheral(p_pio, PIO_PERIPH_C, ul_mask);
  401aa6:	68ba      	ldr	r2, [r7, #8]
  401aa8:	f04f 51c0 	mov.w	r1, #402653184	; 0x18000000
  401aac:	68f8      	ldr	r0, [r7, #12]
  401aae:	4b24      	ldr	r3, [pc, #144]	; (401b40 <pio_configure_pin_group+0x11c>)
  401ab0:	4798      	blx	r3
		pio_pull_up(p_pio, ul_mask, (ul_flags & PIO_PULLUP));
  401ab2:	687b      	ldr	r3, [r7, #4]
  401ab4:	f003 0301 	and.w	r3, r3, #1
  401ab8:	461a      	mov	r2, r3
  401aba:	68b9      	ldr	r1, [r7, #8]
  401abc:	68f8      	ldr	r0, [r7, #12]
  401abe:	4b21      	ldr	r3, [pc, #132]	; (401b44 <pio_configure_pin_group+0x120>)
  401ac0:	4798      	blx	r3
		break;
  401ac2:	e038      	b.n	401b36 <pio_configure_pin_group+0x112>
	case PIO_TYPE_PIO_PERIPH_D:
		pio_set_peripheral(p_pio, PIO_PERIPH_D, ul_mask);
  401ac4:	68ba      	ldr	r2, [r7, #8]
  401ac6:	f04f 5100 	mov.w	r1, #536870912	; 0x20000000
  401aca:	68f8      	ldr	r0, [r7, #12]
  401acc:	4b1c      	ldr	r3, [pc, #112]	; (401b40 <pio_configure_pin_group+0x11c>)
  401ace:	4798      	blx	r3
		pio_pull_up(p_pio, ul_mask, (ul_flags & PIO_PULLUP));
  401ad0:	687b      	ldr	r3, [r7, #4]
  401ad2:	f003 0301 	and.w	r3, r3, #1
  401ad6:	461a      	mov	r2, r3
  401ad8:	68b9      	ldr	r1, [r7, #8]
  401ada:	68f8      	ldr	r0, [r7, #12]
  401adc:	4b19      	ldr	r3, [pc, #100]	; (401b44 <pio_configure_pin_group+0x120>)
  401ade:	4798      	blx	r3
		break;
  401ae0:	e029      	b.n	401b36 <pio_configure_pin_group+0x112>
#endif

	case PIO_TYPE_PIO_INPUT:
		pio_set_input(p_pio, ul_mask, ul_flags);
  401ae2:	687a      	ldr	r2, [r7, #4]
  401ae4:	68b9      	ldr	r1, [r7, #8]
  401ae6:	68f8      	ldr	r0, [r7, #12]
  401ae8:	4b17      	ldr	r3, [pc, #92]	; (401b48 <pio_configure_pin_group+0x124>)
  401aea:	4798      	blx	r3
		break;
  401aec:	e023      	b.n	401b36 <pio_configure_pin_group+0x112>

	case PIO_TYPE_PIO_OUTPUT_0:
	case PIO_TYPE_PIO_OUTPUT_1:
		pio_set_output(p_pio, ul_mask,
				((ul_flags & PIO_TYPE_PIO_OUTPUT_1)
  401aee:	687b      	ldr	r3, [r7, #4]
  401af0:	f003 5360 	and.w	r3, r3, #939524096	; 0x38000000
		pio_set_input(p_pio, ul_mask, ul_flags);
		break;

	case PIO_TYPE_PIO_OUTPUT_0:
	case PIO_TYPE_PIO_OUTPUT_1:
		pio_set_output(p_pio, ul_mask,
  401af4:	f1b3 5f60 	cmp.w	r3, #939524096	; 0x38000000
  401af8:	bf0c      	ite	eq
  401afa:	2301      	moveq	r3, #1
  401afc:	2300      	movne	r3, #0
  401afe:	b2db      	uxtb	r3, r3
  401b00:	461a      	mov	r2, r3
				((ul_flags & PIO_TYPE_PIO_OUTPUT_1)
				== PIO_TYPE_PIO_OUTPUT_1) ? 1 : 0,
				(ul_flags & PIO_OPENDRAIN) ? 1 : 0,
  401b02:	687b      	ldr	r3, [r7, #4]
  401b04:	f003 0304 	and.w	r3, r3, #4
		pio_set_input(p_pio, ul_mask, ul_flags);
		break;

	case PIO_TYPE_PIO_OUTPUT_0:
	case PIO_TYPE_PIO_OUTPUT_1:
		pio_set_output(p_pio, ul_mask,
  401b08:	2b00      	cmp	r3, #0
  401b0a:	bf14      	ite	ne
  401b0c:	2301      	movne	r3, #1
  401b0e:	2300      	moveq	r3, #0
  401b10:	b2db      	uxtb	r3, r3
  401b12:	4619      	mov	r1, r3
				((ul_flags & PIO_TYPE_PIO_OUTPUT_1)
				== PIO_TYPE_PIO_OUTPUT_1) ? 1 : 0,
				(ul_flags & PIO_OPENDRAIN) ? 1 : 0,
				(ul_flags & PIO_PULLUP) ? 1 : 0);
  401b14:	687b      	ldr	r3, [r7, #4]
  401b16:	f003 0301 	and.w	r3, r3, #1
		pio_set_input(p_pio, ul_mask, ul_flags);
		break;

	case PIO_TYPE_PIO_OUTPUT_0:
	case PIO_TYPE_PIO_OUTPUT_1:
		pio_set_output(p_pio, ul_mask,
  401b1a:	2b00      	cmp	r3, #0
  401b1c:	bf14      	ite	ne
  401b1e:	2301      	movne	r3, #1
  401b20:	2300      	moveq	r3, #0
  401b22:	b2db      	uxtb	r3, r3
  401b24:	9300      	str	r3, [sp, #0]
  401b26:	460b      	mov	r3, r1
  401b28:	68b9      	ldr	r1, [r7, #8]
  401b2a:	68f8      	ldr	r0, [r7, #12]
  401b2c:	4c07      	ldr	r4, [pc, #28]	; (401b4c <pio_configure_pin_group+0x128>)
  401b2e:	47a0      	blx	r4
				((ul_flags & PIO_TYPE_PIO_OUTPUT_1)
				== PIO_TYPE_PIO_OUTPUT_1) ? 1 : 0,
				(ul_flags & PIO_OPENDRAIN) ? 1 : 0,
				(ul_flags & PIO_PULLUP) ? 1 : 0);
		break;
  401b30:	e001      	b.n	401b36 <pio_configure_pin_group+0x112>

	default:
		return 0;
  401b32:	2300      	movs	r3, #0
  401b34:	e000      	b.n	401b38 <pio_configure_pin_group+0x114>
	}

	return 1;
  401b36:	2301      	movs	r3, #1
}
  401b38:	4618      	mov	r0, r3
  401b3a:	3714      	adds	r7, #20
  401b3c:	46bd      	mov	sp, r7
  401b3e:	bd90      	pop	{r4, r7, pc}
  401b40:	004015a5 	.word	0x004015a5
  401b44:	00401579 	.word	0x00401579
  401b48:	004016b5 	.word	0x004016b5
  401b4c:	00401735 	.word	0x00401735

00401b50 <pio_get_pin_group>:
 * \param ul_pin The pin index.
 *
 * \return Pointer to \ref Pio struct for GPIO port.
 */
Pio *pio_get_pin_group(uint32_t ul_pin)
{
  401b50:	b480      	push	{r7}
  401b52:	b085      	sub	sp, #20
  401b54:	af00      	add	r7, sp, #0
  401b56:	6078      	str	r0, [r7, #4]
		p_pio = PIOC;
	} else {
		p_pio = (Pio *)((uint32_t)PIOA + (PIO_DELTA * (ul_pin >> 5)));
	}
#else
	p_pio = (Pio *)((uint32_t)PIOA + (PIO_DELTA * (ul_pin >> 5)));
  401b58:	687b      	ldr	r3, [r7, #4]
  401b5a:	095b      	lsrs	r3, r3, #5
  401b5c:	f503 1300 	add.w	r3, r3, #2097152	; 0x200000
  401b60:	f203 7307 	addw	r3, r3, #1799	; 0x707
  401b64:	025b      	lsls	r3, r3, #9
  401b66:	60fb      	str	r3, [r7, #12]
#endif
	return p_pio;
  401b68:	68fb      	ldr	r3, [r7, #12]
}
  401b6a:	4618      	mov	r0, r3
  401b6c:	3714      	adds	r7, #20
  401b6e:	46bd      	mov	sp, r7
  401b70:	bc80      	pop	{r7}
  401b72:	4770      	bx	lr

00401b74 <pmc_switch_mck_to_pllack>:
 *
 * \retval 0 Success.
 * \retval 1 Timeout error.
 */
uint32_t pmc_switch_mck_to_pllack(uint32_t ul_pres)
{
  401b74:	b480      	push	{r7}
  401b76:	b085      	sub	sp, #20
  401b78:	af00      	add	r7, sp, #0
  401b7a:	6078      	str	r0, [r7, #4]
	uint32_t ul_timeout;

	PMC->PMC_MCKR = (PMC->PMC_MCKR & (~PMC_MCKR_PRES_Msk)) | ul_pres;
  401b7c:	491c      	ldr	r1, [pc, #112]	; (401bf0 <pmc_switch_mck_to_pllack+0x7c>)
  401b7e:	4b1c      	ldr	r3, [pc, #112]	; (401bf0 <pmc_switch_mck_to_pllack+0x7c>)
  401b80:	6b1b      	ldr	r3, [r3, #48]	; 0x30
  401b82:	f023 0270 	bic.w	r2, r3, #112	; 0x70
  401b86:	687b      	ldr	r3, [r7, #4]
  401b88:	4313      	orrs	r3, r2
  401b8a:	630b      	str	r3, [r1, #48]	; 0x30
	for (ul_timeout = PMC_TIMEOUT; !(PMC->PMC_SR & PMC_SR_MCKRDY);
  401b8c:	f44f 6300 	mov.w	r3, #2048	; 0x800
  401b90:	60fb      	str	r3, [r7, #12]
  401b92:	e007      	b.n	401ba4 <pmc_switch_mck_to_pllack+0x30>
			--ul_timeout) {
		if (ul_timeout == 0) {
  401b94:	68fb      	ldr	r3, [r7, #12]
  401b96:	2b00      	cmp	r3, #0
  401b98:	d101      	bne.n	401b9e <pmc_switch_mck_to_pllack+0x2a>
			return 1;
  401b9a:	2301      	movs	r3, #1
  401b9c:	e023      	b.n	401be6 <pmc_switch_mck_to_pllack+0x72>
{
	uint32_t ul_timeout;

	PMC->PMC_MCKR = (PMC->PMC_MCKR & (~PMC_MCKR_PRES_Msk)) | ul_pres;
	for (ul_timeout = PMC_TIMEOUT; !(PMC->PMC_SR & PMC_SR_MCKRDY);
			--ul_timeout) {
  401b9e:	68fb      	ldr	r3, [r7, #12]
  401ba0:	3b01      	subs	r3, #1
  401ba2:	60fb      	str	r3, [r7, #12]
uint32_t pmc_switch_mck_to_pllack(uint32_t ul_pres)
{
	uint32_t ul_timeout;

	PMC->PMC_MCKR = (PMC->PMC_MCKR & (~PMC_MCKR_PRES_Msk)) | ul_pres;
	for (ul_timeout = PMC_TIMEOUT; !(PMC->PMC_SR & PMC_SR_MCKRDY);
  401ba4:	4b12      	ldr	r3, [pc, #72]	; (401bf0 <pmc_switch_mck_to_pllack+0x7c>)
  401ba6:	6e9b      	ldr	r3, [r3, #104]	; 0x68
  401ba8:	f003 0308 	and.w	r3, r3, #8
  401bac:	2b00      	cmp	r3, #0
  401bae:	d0f1      	beq.n	401b94 <pmc_switch_mck_to_pllack+0x20>
		if (ul_timeout == 0) {
			return 1;
		}
	}

	PMC->PMC_MCKR = (PMC->PMC_MCKR & (~PMC_MCKR_CSS_Msk)) |
  401bb0:	4a0f      	ldr	r2, [pc, #60]	; (401bf0 <pmc_switch_mck_to_pllack+0x7c>)
  401bb2:	4b0f      	ldr	r3, [pc, #60]	; (401bf0 <pmc_switch_mck_to_pllack+0x7c>)
  401bb4:	6b1b      	ldr	r3, [r3, #48]	; 0x30
  401bb6:	f023 0303 	bic.w	r3, r3, #3
  401bba:	f043 0302 	orr.w	r3, r3, #2
  401bbe:	6313      	str	r3, [r2, #48]	; 0x30
			PMC_MCKR_CSS_PLLA_CLK;

	for (ul_timeout = PMC_TIMEOUT; !(PMC->PMC_SR & PMC_SR_MCKRDY);
  401bc0:	f44f 6300 	mov.w	r3, #2048	; 0x800
  401bc4:	60fb      	str	r3, [r7, #12]
  401bc6:	e007      	b.n	401bd8 <pmc_switch_mck_to_pllack+0x64>
			--ul_timeout) {
		if (ul_timeout == 0) {
  401bc8:	68fb      	ldr	r3, [r7, #12]
  401bca:	2b00      	cmp	r3, #0
  401bcc:	d101      	bne.n	401bd2 <pmc_switch_mck_to_pllack+0x5e>
			return 1;
  401bce:	2301      	movs	r3, #1
  401bd0:	e009      	b.n	401be6 <pmc_switch_mck_to_pllack+0x72>

	PMC->PMC_MCKR = (PMC->PMC_MCKR & (~PMC_MCKR_CSS_Msk)) |
			PMC_MCKR_CSS_PLLA_CLK;

	for (ul_timeout = PMC_TIMEOUT; !(PMC->PMC_SR & PMC_SR_MCKRDY);
			--ul_timeout) {
  401bd2:	68fb      	ldr	r3, [r7, #12]
  401bd4:	3b01      	subs	r3, #1
  401bd6:	60fb      	str	r3, [r7, #12]
	}

	PMC->PMC_MCKR = (PMC->PMC_MCKR & (~PMC_MCKR_CSS_Msk)) |
			PMC_MCKR_CSS_PLLA_CLK;

	for (ul_timeout = PMC_TIMEOUT; !(PMC->PMC_SR & PMC_SR_MCKRDY);
  401bd8:	4b05      	ldr	r3, [pc, #20]	; (401bf0 <pmc_switch_mck_to_pllack+0x7c>)
  401bda:	6e9b      	ldr	r3, [r3, #104]	; 0x68
  401bdc:	f003 0308 	and.w	r3, r3, #8
  401be0:	2b00      	cmp	r3, #0
  401be2:	d0f1      	beq.n	401bc8 <pmc_switch_mck_to_pllack+0x54>
		if (ul_timeout == 0) {
			return 1;
		}
	}

	return 0;
  401be4:	2300      	movs	r3, #0
}
  401be6:	4618      	mov	r0, r3
  401be8:	3714      	adds	r7, #20
  401bea:	46bd      	mov	sp, r7
  401bec:	bc80      	pop	{r7}
  401bee:	4770      	bx	lr
  401bf0:	400e0400 	.word	0x400e0400

00401bf4 <pmc_switch_sclk_to_32kxtal>:
 *       VDDIO power supply.
 *
 * \param ul_bypass 0 for Xtal, 1 for bypass.
 */
void pmc_switch_sclk_to_32kxtal(uint32_t ul_bypass)
{
  401bf4:	b480      	push	{r7}
  401bf6:	b083      	sub	sp, #12
  401bf8:	af00      	add	r7, sp, #0
  401bfa:	6078      	str	r0, [r7, #4]
	/* Set Bypass mode if required */
	if (ul_bypass == 1) {
  401bfc:	687b      	ldr	r3, [r7, #4]
  401bfe:	2b01      	cmp	r3, #1
  401c00:	d107      	bne.n	401c12 <pmc_switch_sclk_to_32kxtal+0x1e>
		SUPC->SUPC_MR |= SUPC_MR_KEY_PASSWD |
  401c02:	4a08      	ldr	r2, [pc, #32]	; (401c24 <pmc_switch_sclk_to_32kxtal+0x30>)
  401c04:	4b07      	ldr	r3, [pc, #28]	; (401c24 <pmc_switch_sclk_to_32kxtal+0x30>)
  401c06:	689b      	ldr	r3, [r3, #8]
  401c08:	f043 4325 	orr.w	r3, r3, #2768240640	; 0xa5000000
  401c0c:	f443 1380 	orr.w	r3, r3, #1048576	; 0x100000
  401c10:	6093      	str	r3, [r2, #8]
			SUPC_MR_OSCBYPASS;
	}

	SUPC->SUPC_CR = SUPC_CR_KEY_PASSWD | SUPC_CR_XTALSEL;
  401c12:	4b04      	ldr	r3, [pc, #16]	; (401c24 <pmc_switch_sclk_to_32kxtal+0x30>)
  401c14:	4a04      	ldr	r2, [pc, #16]	; (401c28 <pmc_switch_sclk_to_32kxtal+0x34>)
  401c16:	601a      	str	r2, [r3, #0]
}
  401c18:	bf00      	nop
  401c1a:	370c      	adds	r7, #12
  401c1c:	46bd      	mov	sp, r7
  401c1e:	bc80      	pop	{r7}
  401c20:	4770      	bx	lr
  401c22:	bf00      	nop
  401c24:	400e1410 	.word	0x400e1410
  401c28:	a5000008 	.word	0xa5000008

00401c2c <pmc_osc_is_ready_32kxtal>:
 *
 * \retval 1 External 32k Xtal is ready.
 * \retval 0 External 32k Xtal is not ready.
 */
uint32_t pmc_osc_is_ready_32kxtal(void)
{
  401c2c:	b480      	push	{r7}
  401c2e:	af00      	add	r7, sp, #0
	return ((SUPC->SUPC_SR & SUPC_SR_OSCSEL)
  401c30:	4b09      	ldr	r3, [pc, #36]	; (401c58 <pmc_osc_is_ready_32kxtal+0x2c>)
  401c32:	695b      	ldr	r3, [r3, #20]
  401c34:	f003 0380 	and.w	r3, r3, #128	; 0x80
			&& (PMC->PMC_SR & PMC_SR_OSCSELS));
  401c38:	2b00      	cmp	r3, #0
  401c3a:	d007      	beq.n	401c4c <pmc_osc_is_ready_32kxtal+0x20>
  401c3c:	4b07      	ldr	r3, [pc, #28]	; (401c5c <pmc_osc_is_ready_32kxtal+0x30>)
  401c3e:	6e9b      	ldr	r3, [r3, #104]	; 0x68
  401c40:	f003 0380 	and.w	r3, r3, #128	; 0x80
  401c44:	2b00      	cmp	r3, #0
  401c46:	d001      	beq.n	401c4c <pmc_osc_is_ready_32kxtal+0x20>
  401c48:	2301      	movs	r3, #1
  401c4a:	e000      	b.n	401c4e <pmc_osc_is_ready_32kxtal+0x22>
  401c4c:	2300      	movs	r3, #0
}
  401c4e:	4618      	mov	r0, r3
  401c50:	46bd      	mov	sp, r7
  401c52:	bc80      	pop	{r7}
  401c54:	4770      	bx	lr
  401c56:	bf00      	nop
  401c58:	400e1410 	.word	0x400e1410
  401c5c:	400e0400 	.word	0x400e0400

00401c60 <pmc_switch_mainck_to_fastrc>:
 * \retval 0 Success.
 * \retval 1 Timeout error.
 * \retval 2 Invalid frequency.
 */
void pmc_switch_mainck_to_fastrc(uint32_t ul_moscrcf)
{
  401c60:	b480      	push	{r7}
  401c62:	b083      	sub	sp, #12
  401c64:	af00      	add	r7, sp, #0
  401c66:	6078      	str	r0, [r7, #4]
	/* Enable Fast RC oscillator but DO NOT switch to RC now */
	PMC->CKGR_MOR |= (CKGR_MOR_KEY_PASSWD | CKGR_MOR_MOSCRCEN);
  401c68:	4a18      	ldr	r2, [pc, #96]	; (401ccc <pmc_switch_mainck_to_fastrc+0x6c>)
  401c6a:	4b18      	ldr	r3, [pc, #96]	; (401ccc <pmc_switch_mainck_to_fastrc+0x6c>)
  401c6c:	6a1b      	ldr	r3, [r3, #32]
  401c6e:	f443 135c 	orr.w	r3, r3, #3604480	; 0x370000
  401c72:	f043 0308 	orr.w	r3, r3, #8
  401c76:	6213      	str	r3, [r2, #32]

	/* Wait the Fast RC to stabilize */
	while (!(PMC->PMC_SR & PMC_SR_MOSCRCS));
  401c78:	bf00      	nop
  401c7a:	4b14      	ldr	r3, [pc, #80]	; (401ccc <pmc_switch_mainck_to_fastrc+0x6c>)
  401c7c:	6e9b      	ldr	r3, [r3, #104]	; 0x68
  401c7e:	f403 3300 	and.w	r3, r3, #131072	; 0x20000
  401c82:	2b00      	cmp	r3, #0
  401c84:	d0f9      	beq.n	401c7a <pmc_switch_mainck_to_fastrc+0x1a>

	/* Change Fast RC oscillator frequency */
	PMC->CKGR_MOR = (PMC->CKGR_MOR & ~CKGR_MOR_MOSCRCF_Msk) |
  401c86:	4911      	ldr	r1, [pc, #68]	; (401ccc <pmc_switch_mainck_to_fastrc+0x6c>)
  401c88:	4b10      	ldr	r3, [pc, #64]	; (401ccc <pmc_switch_mainck_to_fastrc+0x6c>)
  401c8a:	6a1b      	ldr	r3, [r3, #32]
  401c8c:	f423 135c 	bic.w	r3, r3, #3604480	; 0x370000
  401c90:	f023 0370 	bic.w	r3, r3, #112	; 0x70
			CKGR_MOR_KEY_PASSWD | ul_moscrcf;
  401c94:	687a      	ldr	r2, [r7, #4]
  401c96:	4313      	orrs	r3, r2
  401c98:	f443 135c 	orr.w	r3, r3, #3604480	; 0x370000

	/* Wait the Fast RC to stabilize */
	while (!(PMC->PMC_SR & PMC_SR_MOSCRCS));

	/* Change Fast RC oscillator frequency */
	PMC->CKGR_MOR = (PMC->CKGR_MOR & ~CKGR_MOR_MOSCRCF_Msk) |
  401c9c:	620b      	str	r3, [r1, #32]
			CKGR_MOR_KEY_PASSWD | ul_moscrcf;

	/* Wait the Fast RC to stabilize */
	while (!(PMC->PMC_SR & PMC_SR_MOSCRCS));
  401c9e:	bf00      	nop
  401ca0:	4b0a      	ldr	r3, [pc, #40]	; (401ccc <pmc_switch_mainck_to_fastrc+0x6c>)
  401ca2:	6e9b      	ldr	r3, [r3, #104]	; 0x68
  401ca4:	f403 3300 	and.w	r3, r3, #131072	; 0x20000
  401ca8:	2b00      	cmp	r3, #0
  401caa:	d0f9      	beq.n	401ca0 <pmc_switch_mainck_to_fastrc+0x40>

	/* Switch to Fast RC */
	PMC->CKGR_MOR = (PMC->CKGR_MOR & ~CKGR_MOR_MOSCSEL) |
  401cac:	4a07      	ldr	r2, [pc, #28]	; (401ccc <pmc_switch_mainck_to_fastrc+0x6c>)
  401cae:	4b07      	ldr	r3, [pc, #28]	; (401ccc <pmc_switch_mainck_to_fastrc+0x6c>)
  401cb0:	6a1b      	ldr	r3, [r3, #32]
  401cb2:	f023 739b 	bic.w	r3, r3, #20316160	; 0x1360000
  401cb6:	f423 3380 	bic.w	r3, r3, #65536	; 0x10000
  401cba:	f443 135c 	orr.w	r3, r3, #3604480	; 0x370000
  401cbe:	6213      	str	r3, [r2, #32]
			CKGR_MOR_KEY_PASSWD;
}
  401cc0:	bf00      	nop
  401cc2:	370c      	adds	r7, #12
  401cc4:	46bd      	mov	sp, r7
  401cc6:	bc80      	pop	{r7}
  401cc8:	4770      	bx	lr
  401cca:	bf00      	nop
  401ccc:	400e0400 	.word	0x400e0400

00401cd0 <pmc_switch_mainck_to_xtal>:
 * \retval 0 Success.
 * \retval 1 Timeout error.
 */
void pmc_switch_mainck_to_xtal(uint32_t ul_bypass,
		uint32_t ul_xtal_startup_time)
{
  401cd0:	b480      	push	{r7}
  401cd2:	b083      	sub	sp, #12
  401cd4:	af00      	add	r7, sp, #0
  401cd6:	6078      	str	r0, [r7, #4]
  401cd8:	6039      	str	r1, [r7, #0]
	/* Enable Main Xtal oscillator */
	if (ul_bypass) {
  401cda:	687b      	ldr	r3, [r7, #4]
  401cdc:	2b00      	cmp	r3, #0
  401cde:	d008      	beq.n	401cf2 <pmc_switch_mainck_to_xtal+0x22>
		PMC->CKGR_MOR = (PMC->CKGR_MOR & ~CKGR_MOR_MOSCXTEN) |
  401ce0:	4916      	ldr	r1, [pc, #88]	; (401d3c <pmc_switch_mainck_to_xtal+0x6c>)
  401ce2:	4b16      	ldr	r3, [pc, #88]	; (401d3c <pmc_switch_mainck_to_xtal+0x6c>)
  401ce4:	6a1b      	ldr	r3, [r3, #32]
				CKGR_MOR_KEY_PASSWD | CKGR_MOR_MOSCXTBY |
  401ce6:	4a16      	ldr	r2, [pc, #88]	; (401d40 <pmc_switch_mainck_to_xtal+0x70>)
  401ce8:	401a      	ands	r2, r3
  401cea:	4b16      	ldr	r3, [pc, #88]	; (401d44 <pmc_switch_mainck_to_xtal+0x74>)
  401cec:	4313      	orrs	r3, r2
void pmc_switch_mainck_to_xtal(uint32_t ul_bypass,
		uint32_t ul_xtal_startup_time)
{
	/* Enable Main Xtal oscillator */
	if (ul_bypass) {
		PMC->CKGR_MOR = (PMC->CKGR_MOR & ~CKGR_MOR_MOSCXTEN) |
  401cee:	620b      	str	r3, [r1, #32]
		/* Wait the Xtal to stabilize */
		while (!(PMC->PMC_SR & PMC_SR_MOSCXTS));

		PMC->CKGR_MOR |= CKGR_MOR_KEY_PASSWD | CKGR_MOR_MOSCSEL;
	}
}
  401cf0:	e01e      	b.n	401d30 <pmc_switch_mainck_to_xtal+0x60>
	if (ul_bypass) {
		PMC->CKGR_MOR = (PMC->CKGR_MOR & ~CKGR_MOR_MOSCXTEN) |
				CKGR_MOR_KEY_PASSWD | CKGR_MOR_MOSCXTBY |
				CKGR_MOR_MOSCSEL;
	} else {
		PMC->CKGR_MOR = (PMC->CKGR_MOR & ~CKGR_MOR_MOSCXTBY) |
  401cf2:	4912      	ldr	r1, [pc, #72]	; (401d3c <pmc_switch_mainck_to_xtal+0x6c>)
  401cf4:	4b11      	ldr	r3, [pc, #68]	; (401d3c <pmc_switch_mainck_to_xtal+0x6c>)
  401cf6:	6a1b      	ldr	r3, [r3, #32]
				CKGR_MOR_KEY_PASSWD | CKGR_MOR_MOSCXTEN |
  401cf8:	f423 135c 	bic.w	r3, r3, #3604480	; 0x370000
  401cfc:	f023 0303 	bic.w	r3, r3, #3
				CKGR_MOR_MOSCXTST(ul_xtal_startup_time);
  401d00:	683a      	ldr	r2, [r7, #0]
  401d02:	0212      	lsls	r2, r2, #8
  401d04:	b292      	uxth	r2, r2
		PMC->CKGR_MOR = (PMC->CKGR_MOR & ~CKGR_MOR_MOSCXTEN) |
				CKGR_MOR_KEY_PASSWD | CKGR_MOR_MOSCXTBY |
				CKGR_MOR_MOSCSEL;
	} else {
		PMC->CKGR_MOR = (PMC->CKGR_MOR & ~CKGR_MOR_MOSCXTBY) |
				CKGR_MOR_KEY_PASSWD | CKGR_MOR_MOSCXTEN |
  401d06:	4313      	orrs	r3, r2
  401d08:	f443 135c 	orr.w	r3, r3, #3604480	; 0x370000
  401d0c:	f043 0301 	orr.w	r3, r3, #1
	if (ul_bypass) {
		PMC->CKGR_MOR = (PMC->CKGR_MOR & ~CKGR_MOR_MOSCXTEN) |
				CKGR_MOR_KEY_PASSWD | CKGR_MOR_MOSCXTBY |
				CKGR_MOR_MOSCSEL;
	} else {
		PMC->CKGR_MOR = (PMC->CKGR_MOR & ~CKGR_MOR_MOSCXTBY) |
  401d10:	620b      	str	r3, [r1, #32]
				CKGR_MOR_KEY_PASSWD | CKGR_MOR_MOSCXTEN |
				CKGR_MOR_MOSCXTST(ul_xtal_startup_time);
		/* Wait the Xtal to stabilize */
		while (!(PMC->PMC_SR & PMC_SR_MOSCXTS));
  401d12:	bf00      	nop
  401d14:	4b09      	ldr	r3, [pc, #36]	; (401d3c <pmc_switch_mainck_to_xtal+0x6c>)
  401d16:	6e9b      	ldr	r3, [r3, #104]	; 0x68
  401d18:	f003 0301 	and.w	r3, r3, #1
  401d1c:	2b00      	cmp	r3, #0
  401d1e:	d0f9      	beq.n	401d14 <pmc_switch_mainck_to_xtal+0x44>

		PMC->CKGR_MOR |= CKGR_MOR_KEY_PASSWD | CKGR_MOR_MOSCSEL;
  401d20:	4a06      	ldr	r2, [pc, #24]	; (401d3c <pmc_switch_mainck_to_xtal+0x6c>)
  401d22:	4b06      	ldr	r3, [pc, #24]	; (401d3c <pmc_switch_mainck_to_xtal+0x6c>)
  401d24:	6a1b      	ldr	r3, [r3, #32]
  401d26:	f043 739b 	orr.w	r3, r3, #20316160	; 0x1360000
  401d2a:	f443 3380 	orr.w	r3, r3, #65536	; 0x10000
  401d2e:	6213      	str	r3, [r2, #32]
	}
}
  401d30:	bf00      	nop
  401d32:	370c      	adds	r7, #12
  401d34:	46bd      	mov	sp, r7
  401d36:	bc80      	pop	{r7}
  401d38:	4770      	bx	lr
  401d3a:	bf00      	nop
  401d3c:	400e0400 	.word	0x400e0400
  401d40:	fec8fffc 	.word	0xfec8fffc
  401d44:	01370002 	.word	0x01370002

00401d48 <pmc_osc_is_ready_mainck>:
 *
 * \retval 1 Xtal is ready.
 * \retval 0 Xtal is not ready.
 */
uint32_t pmc_osc_is_ready_mainck(void)
{
  401d48:	b480      	push	{r7}
  401d4a:	af00      	add	r7, sp, #0
	return PMC->PMC_SR & PMC_SR_MOSCSELS;
  401d4c:	4b03      	ldr	r3, [pc, #12]	; (401d5c <pmc_osc_is_ready_mainck+0x14>)
  401d4e:	6e9b      	ldr	r3, [r3, #104]	; 0x68
  401d50:	f403 3380 	and.w	r3, r3, #65536	; 0x10000
}
  401d54:	4618      	mov	r0, r3
  401d56:	46bd      	mov	sp, r7
  401d58:	bc80      	pop	{r7}
  401d5a:	4770      	bx	lr
  401d5c:	400e0400 	.word	0x400e0400

00401d60 <pmc_disable_pllack>:

/**
 * \brief Disable PLLA clock.
 */
void pmc_disable_pllack(void)
{
  401d60:	b480      	push	{r7}
  401d62:	af00      	add	r7, sp, #0
#if (SAM4C || SAM4CM || SAM4CP || SAMG)
	PMC->CKGR_PLLAR = CKGR_PLLAR_MULA(0);
#else
	PMC->CKGR_PLLAR = CKGR_PLLAR_ONE | CKGR_PLLAR_MULA(0);
  401d64:	4b03      	ldr	r3, [pc, #12]	; (401d74 <pmc_disable_pllack+0x14>)
  401d66:	f04f 5200 	mov.w	r2, #536870912	; 0x20000000
  401d6a:	629a      	str	r2, [r3, #40]	; 0x28
#endif
}
  401d6c:	bf00      	nop
  401d6e:	46bd      	mov	sp, r7
  401d70:	bc80      	pop	{r7}
  401d72:	4770      	bx	lr
  401d74:	400e0400 	.word	0x400e0400

00401d78 <pmc_is_locked_pllack>:
 *
 * \retval 0 Not locked.
 * \retval 1 Locked.
 */
uint32_t pmc_is_locked_pllack(void)
{
  401d78:	b480      	push	{r7}
  401d7a:	af00      	add	r7, sp, #0
	return (PMC->PMC_SR & PMC_SR_LOCKA);
  401d7c:	4b03      	ldr	r3, [pc, #12]	; (401d8c <pmc_is_locked_pllack+0x14>)
  401d7e:	6e9b      	ldr	r3, [r3, #104]	; 0x68
  401d80:	f003 0302 	and.w	r3, r3, #2
}
  401d84:	4618      	mov	r0, r3
  401d86:	46bd      	mov	sp, r7
  401d88:	bc80      	pop	{r7}
  401d8a:	4770      	bx	lr
  401d8c:	400e0400 	.word	0x400e0400

00401d90 <pmc_disable_pllbck>:

/**
 * \brief Disable PLLB clock.
 */
void pmc_disable_pllbck(void)
{
  401d90:	b480      	push	{r7}
  401d92:	af00      	add	r7, sp, #0
	PMC->CKGR_PLLBR = CKGR_PLLBR_MULB(0);
  401d94:	4b03      	ldr	r3, [pc, #12]	; (401da4 <pmc_disable_pllbck+0x14>)
  401d96:	2200      	movs	r2, #0
  401d98:	62da      	str	r2, [r3, #44]	; 0x2c
}
  401d9a:	bf00      	nop
  401d9c:	46bd      	mov	sp, r7
  401d9e:	bc80      	pop	{r7}
  401da0:	4770      	bx	lr
  401da2:	bf00      	nop
  401da4:	400e0400 	.word	0x400e0400

00401da8 <pmc_is_locked_pllbck>:
 *
 * \retval 0 Not locked.
 * \retval 1 Locked.
 */
uint32_t pmc_is_locked_pllbck(void)
{
  401da8:	b480      	push	{r7}
  401daa:	af00      	add	r7, sp, #0
	return (PMC->PMC_SR & PMC_SR_LOCKB);
  401dac:	4b03      	ldr	r3, [pc, #12]	; (401dbc <pmc_is_locked_pllbck+0x14>)
  401dae:	6e9b      	ldr	r3, [r3, #104]	; 0x68
  401db0:	f003 0304 	and.w	r3, r3, #4
}
  401db4:	4618      	mov	r0, r3
  401db6:	46bd      	mov	sp, r7
  401db8:	bc80      	pop	{r7}
  401dba:	4770      	bx	lr
  401dbc:	400e0400 	.word	0x400e0400

00401dc0 <pmc_enable_periph_clk>:
 *
 * \retval 0 Success.
 * \retval 1 Invalid parameter.
 */
uint32_t pmc_enable_periph_clk(uint32_t ul_id)
{
  401dc0:	b480      	push	{r7}
  401dc2:	b083      	sub	sp, #12
  401dc4:	af00      	add	r7, sp, #0
  401dc6:	6078      	str	r0, [r7, #4]
	if (ul_id > MAX_PERIPH_ID) {
  401dc8:	687b      	ldr	r3, [r7, #4]
  401dca:	2b22      	cmp	r3, #34	; 0x22
  401dcc:	d901      	bls.n	401dd2 <pmc_enable_periph_clk+0x12>
		return 1;
  401dce:	2301      	movs	r3, #1
  401dd0:	e02f      	b.n	401e32 <pmc_enable_periph_clk+0x72>
	}

	if (ul_id < 32) {
  401dd2:	687b      	ldr	r3, [r7, #4]
  401dd4:	2b1f      	cmp	r3, #31
  401dd6:	d813      	bhi.n	401e00 <pmc_enable_periph_clk+0x40>
		if ((PMC->PMC_PCSR0 & (1u << ul_id)) != (1u << ul_id)) {
  401dd8:	4b18      	ldr	r3, [pc, #96]	; (401e3c <pmc_enable_periph_clk+0x7c>)
  401dda:	699a      	ldr	r2, [r3, #24]
  401ddc:	2101      	movs	r1, #1
  401dde:	687b      	ldr	r3, [r7, #4]
  401de0:	fa01 f303 	lsl.w	r3, r1, r3
  401de4:	401a      	ands	r2, r3
  401de6:	2101      	movs	r1, #1
  401de8:	687b      	ldr	r3, [r7, #4]
  401dea:	fa01 f303 	lsl.w	r3, r1, r3
  401dee:	429a      	cmp	r2, r3
  401df0:	d01e      	beq.n	401e30 <pmc_enable_periph_clk+0x70>
			PMC->PMC_PCER0 = 1 << ul_id;
  401df2:	4a12      	ldr	r2, [pc, #72]	; (401e3c <pmc_enable_periph_clk+0x7c>)
  401df4:	2101      	movs	r1, #1
  401df6:	687b      	ldr	r3, [r7, #4]
  401df8:	fa01 f303 	lsl.w	r3, r1, r3
  401dfc:	6113      	str	r3, [r2, #16]
  401dfe:	e017      	b.n	401e30 <pmc_enable_periph_clk+0x70>
		}
#if (SAM3S || SAM3XA || SAM4S || SAM4E || SAM4C || SAM4CM || SAM4CP || SAMG55 || SAMV71 || SAMV70 || SAME70 || SAMS70)
	} else {
		ul_id -= 32;
  401e00:	687b      	ldr	r3, [r7, #4]
  401e02:	3b20      	subs	r3, #32
  401e04:	607b      	str	r3, [r7, #4]
		if ((PMC->PMC_PCSR1 & (1u << ul_id)) != (1u << ul_id)) {
  401e06:	4b0d      	ldr	r3, [pc, #52]	; (401e3c <pmc_enable_periph_clk+0x7c>)
  401e08:	f8d3 2108 	ldr.w	r2, [r3, #264]	; 0x108
  401e0c:	2101      	movs	r1, #1
  401e0e:	687b      	ldr	r3, [r7, #4]
  401e10:	fa01 f303 	lsl.w	r3, r1, r3
  401e14:	401a      	ands	r2, r3
  401e16:	2101      	movs	r1, #1
  401e18:	687b      	ldr	r3, [r7, #4]
  401e1a:	fa01 f303 	lsl.w	r3, r1, r3
  401e1e:	429a      	cmp	r2, r3
  401e20:	d006      	beq.n	401e30 <pmc_enable_periph_clk+0x70>
			PMC->PMC_PCER1 = 1 << ul_id;
  401e22:	4a06      	ldr	r2, [pc, #24]	; (401e3c <pmc_enable_periph_clk+0x7c>)
  401e24:	2101      	movs	r1, #1
  401e26:	687b      	ldr	r3, [r7, #4]
  401e28:	fa01 f303 	lsl.w	r3, r1, r3
  401e2c:	f8c2 3100 	str.w	r3, [r2, #256]	; 0x100
		}
#endif
	}

	return 0;
  401e30:	2300      	movs	r3, #0
}
  401e32:	4618      	mov	r0, r3
  401e34:	370c      	adds	r7, #12
  401e36:	46bd      	mov	sp, r7
  401e38:	bc80      	pop	{r7}
  401e3a:	4770      	bx	lr
  401e3c:	400e0400 	.word	0x400e0400

00401e40 <sysclk_enable_peripheral_clock>:
 * \brief Enable a peripheral's clock.
 *
 * \param ul_id Id (number) of the peripheral clock.
 */
static inline void sysclk_enable_peripheral_clock(uint32_t ul_id)
{
  401e40:	b580      	push	{r7, lr}
  401e42:	b082      	sub	sp, #8
  401e44:	af00      	add	r7, sp, #0
  401e46:	6078      	str	r0, [r7, #4]
	pmc_enable_periph_clk(ul_id);
  401e48:	6878      	ldr	r0, [r7, #4]
  401e4a:	4b03      	ldr	r3, [pc, #12]	; (401e58 <sysclk_enable_peripheral_clock+0x18>)
  401e4c:	4798      	blx	r3
}
  401e4e:	bf00      	nop
  401e50:	3708      	adds	r7, #8
  401e52:	46bd      	mov	sp, r7
  401e54:	bd80      	pop	{r7, pc}
  401e56:	bf00      	nop
  401e58:	00401dc1 	.word	0x00401dc1

00401e5c <ioport_init>:
 *
 * This function must be called before using any other functions in the IOPORT
 * service.
 */
static inline void ioport_init(void)
{
  401e5c:	b580      	push	{r7, lr}
  401e5e:	af00      	add	r7, sp, #0
}

__always_inline static void arch_ioport_init(void)
{
#ifdef ID_PIOA
	sysclk_enable_peripheral_clock(ID_PIOA);
  401e60:	200b      	movs	r0, #11
  401e62:	4b03      	ldr	r3, [pc, #12]	; (401e70 <ioport_init+0x14>)
  401e64:	4798      	blx	r3
#endif
#ifdef ID_PIOB
	sysclk_enable_peripheral_clock(ID_PIOB);
  401e66:	200c      	movs	r0, #12
  401e68:	4b01      	ldr	r3, [pc, #4]	; (401e70 <ioport_init+0x14>)
  401e6a:	4798      	blx	r3
	arch_ioport_init();
}
  401e6c:	bf00      	nop
  401e6e:	bd80      	pop	{r7, pc}
  401e70:	00401e41 	.word	0x00401e41

00401e74 <board_init>:
#include "gpio.h"
#include "ioport.h"


void board_init(void)
{
  401e74:	b580      	push	{r7, lr}
  401e76:	af00      	add	r7, sp, #0
	 * for, e.g., the I/O pins. The initialization can rely on application-
	 * specific board configuration, found in conf_board.h.
	 */
	 
	 /* Disable the watchdog */
	 WDT->WDT_MR = WDT_MR_WDDIS;
  401e78:	4b2c      	ldr	r3, [pc, #176]	; (401f2c <board_init+0xb8>)
  401e7a:	f44f 4200 	mov.w	r2, #32768	; 0x8000
  401e7e:	605a      	str	r2, [r3, #4]

	 /* Init IO Port service to enable configuring pins */
	 ioport_init();
  401e80:	4b2b      	ldr	r3, [pc, #172]	; (401f30 <board_init+0xbc>)
  401e82:	4798      	blx	r3
		#define RS485_USART_IRQn	USART0_IRQn
	 #endif
	 #if defined(CONF_UART0_PINS)
		gpio_configure_group(PINS_USART0_PIO, PINS_USART0, PINS_USART0_FLAGS);
	 #else
		gpio_configure_group(PINS_USART1_PIO, PINS_USART1, PINS_USART1_FLAGS);
  401e84:	f04f 6200 	mov.w	r2, #134217728	; 0x8000000
  401e88:	f04f 71b0 	mov.w	r1, #23068672	; 0x1600000
  401e8c:	4829      	ldr	r0, [pc, #164]	; (401f34 <board_init+0xc0>)
  401e8e:	4b2a      	ldr	r3, [pc, #168]	; (401f38 <board_init+0xc4>)
  401e90:	4798      	blx	r3
	 #endif

	 //Configure TWI0 Pins
	 gpio_configure_group(PINS_TWI0_PIO, PINS_TWI0, PINS_TWI0_FLAGS);
  401e92:	f04f 6200 	mov.w	r2, #134217728	; 0x8000000
  401e96:	2118      	movs	r1, #24
  401e98:	4826      	ldr	r0, [pc, #152]	; (401f34 <board_init+0xc0>)
  401e9a:	4b27      	ldr	r3, [pc, #156]	; (401f38 <board_init+0xc4>)
  401e9c:	4798      	blx	r3

	 //Select PB4,5 i.e. MUXSEL2 and DEBUG LED PINs as GPIO
	 MATRIX->CCFG_SYSIO = CCFG_SYSIO_SYSIO4 | CCFG_SYSIO_SYSIO5;
  401e9e:	4b27      	ldr	r3, [pc, #156]	; (401f3c <board_init+0xc8>)
  401ea0:	2230      	movs	r2, #48	; 0x30
  401ea2:	f8c3 2114 	str.w	r2, [r3, #276]	; 0x114

	 //Configure Mux Sel Pins
	 gpio_configure_pin(PIN_MUXSEL0_IDX, (PIO_OUTPUT_0 | PIO_DEFAULT));
  401ea6:	f04f 5140 	mov.w	r1, #805306368	; 0x30000000
  401eaa:	2005      	movs	r0, #5
  401eac:	4b24      	ldr	r3, [pc, #144]	; (401f40 <board_init+0xcc>)
  401eae:	4798      	blx	r3
	 gpio_configure_pin(PIN_MUXSEL1_IDX, (PIO_OUTPUT_0 | PIO_DEFAULT));
  401eb0:	f04f 5140 	mov.w	r1, #805306368	; 0x30000000
  401eb4:	2006      	movs	r0, #6
  401eb6:	4b22      	ldr	r3, [pc, #136]	; (401f40 <board_init+0xcc>)
  401eb8:	4798      	blx	r3
	 gpio_configure_pin(PIN_MUXSEL2_IDX, (PIO_OUTPUT_0 | PIO_DEFAULT));
  401eba:	f04f 5140 	mov.w	r1, #805306368	; 0x30000000
  401ebe:	2024      	movs	r0, #36	; 0x24
  401ec0:	4b1f      	ldr	r3, [pc, #124]	; (401f40 <board_init+0xcc>)
  401ec2:	4798      	blx	r3

	 //Configure Mux Sel Pins
	 gpio_configure_pin(PIN_AMUXSEL0_IDX, (PIO_OUTPUT_0 | PIO_DEFAULT));
  401ec4:	f04f 5140 	mov.w	r1, #805306368	; 0x30000000
  401ec8:	2020      	movs	r0, #32
  401eca:	4b1d      	ldr	r3, [pc, #116]	; (401f40 <board_init+0xcc>)
  401ecc:	4798      	blx	r3
	 gpio_configure_pin(PIN_AMUXSEL1_IDX, (PIO_OUTPUT_0 | PIO_DEFAULT));
  401ece:	f04f 5140 	mov.w	r1, #805306368	; 0x30000000
  401ed2:	2021      	movs	r0, #33	; 0x21
  401ed4:	4b1a      	ldr	r3, [pc, #104]	; (401f40 <board_init+0xcc>)
  401ed6:	4798      	blx	r3
	 gpio_configure_pin(PIN_AMUXSEL2_IDX, (PIO_OUTPUT_0 | PIO_DEFAULT));
  401ed8:	f04f 5140 	mov.w	r1, #805306368	; 0x30000000
  401edc:	2022      	movs	r0, #34	; 0x22
  401ede:	4b18      	ldr	r3, [pc, #96]	; (401f40 <board_init+0xcc>)
  401ee0:	4798      	blx	r3

	 //Configure MUX Output Pins
	 gpio_configure_pin(PIN_MUXOUT0_IDX, (PIO_INPUT | PIO_OPENDRAIN));
  401ee2:	4918      	ldr	r1, [pc, #96]	; (401f44 <board_init+0xd0>)
  401ee4:	2019      	movs	r0, #25
  401ee6:	4b16      	ldr	r3, [pc, #88]	; (401f40 <board_init+0xcc>)
  401ee8:	4798      	blx	r3
	 gpio_configure_pin(PIN_MUXOUT1_IDX, (PIO_INPUT | PIO_OPENDRAIN));
  401eea:	4916      	ldr	r1, [pc, #88]	; (401f44 <board_init+0xd0>)
  401eec:	201a      	movs	r0, #26
  401eee:	4b14      	ldr	r3, [pc, #80]	; (401f40 <board_init+0xcc>)
  401ef0:	4798      	blx	r3
	 gpio_configure_pin(PIN_MUXOUT2_IDX, (PIO_INPUT | PIO_OPENDRAIN));
  401ef2:	4914      	ldr	r1, [pc, #80]	; (401f44 <board_init+0xd0>)
  401ef4:	200c      	movs	r0, #12
  401ef6:	4b12      	ldr	r3, [pc, #72]	; (401f40 <board_init+0xcc>)
  401ef8:	4798      	blx	r3
	 gpio_configure_pin(PIN_MUXOUT3_IDX, (PIO_INPUT | PIO_OPENDRAIN));
  401efa:	4912      	ldr	r1, [pc, #72]	; (401f44 <board_init+0xd0>)
  401efc:	200b      	movs	r0, #11
  401efe:	4b10      	ldr	r3, [pc, #64]	; (401f40 <board_init+0xcc>)
  401f00:	4798      	blx	r3

	 //Configure Debug Switch Pin
	 gpio_configure_pin(PIN_DEBUGSW_IDX, (PIO_INPUT | PIO_OPENDRAIN));
  401f02:	4910      	ldr	r1, [pc, #64]	; (401f44 <board_init+0xd0>)
  401f04:	2023      	movs	r0, #35	; 0x23
  401f06:	4b0e      	ldr	r3, [pc, #56]	; (401f40 <board_init+0xcc>)
  401f08:	4798      	blx	r3
	 
	 //Configure Debug LED Pin
	 gpio_configure_pin(PIN_DEBUGLED_IDX, (PIO_OUTPUT_0 | PIO_DEFAULT));
  401f0a:	f04f 5140 	mov.w	r1, #805306368	; 0x30000000
  401f0e:	2025      	movs	r0, #37	; 0x25
  401f10:	4b0b      	ldr	r3, [pc, #44]	; (401f40 <board_init+0xcc>)
  401f12:	4798      	blx	r3

	 //Configure Relay Pins
	 gpio_configure_pin(PIN_RLY1_IDX, (PIO_OUTPUT_0 | PIO_DEFAULT));
  401f14:	f04f 5140 	mov.w	r1, #805306368	; 0x30000000
  401f18:	2017      	movs	r0, #23
  401f1a:	4b09      	ldr	r3, [pc, #36]	; (401f40 <board_init+0xcc>)
  401f1c:	4798      	blx	r3
	 gpio_configure_pin(PIN_RLY2_IDX, (PIO_OUTPUT_0 | PIO_DEFAULT));
  401f1e:	f04f 5140 	mov.w	r1, #805306368	; 0x30000000
  401f22:	2014      	movs	r0, #20
  401f24:	4b06      	ldr	r3, [pc, #24]	; (401f40 <board_init+0xcc>)
  401f26:	4798      	blx	r3
	 
	 
}
  401f28:	bf00      	nop
  401f2a:	bd80      	pop	{r7, pc}
  401f2c:	400e1450 	.word	0x400e1450
  401f30:	00401e5d 	.word	0x00401e5d
  401f34:	400e0e00 	.word	0x400e0e00
  401f38:	00401a25 	.word	0x00401a25
  401f3c:	400e0200 	.word	0x400e0200
  401f40:	00401875 	.word	0x00401875
  401f44:	28000004 	.word	0x28000004

00401f48 <Reset_Handler>:
/**
 * \brief This is the code that gets called on processor reset.
 * To initialize the device, and call the main() routine.
 */
void Reset_Handler(void)
{
  401f48:	b580      	push	{r7, lr}
  401f4a:	b084      	sub	sp, #16
  401f4c:	af00      	add	r7, sp, #0
	uint32_t *pSrc, *pDest;

	/* Initialize the relocate segment */
	pSrc = &_etext;
  401f4e:	4b27      	ldr	r3, [pc, #156]	; (401fec <Reset_Handler+0xa4>)
  401f50:	60fb      	str	r3, [r7, #12]
	pDest = &_srelocate;
  401f52:	4b27      	ldr	r3, [pc, #156]	; (401ff0 <Reset_Handler+0xa8>)
  401f54:	60bb      	str	r3, [r7, #8]

	if (pSrc > pDest) {
  401f56:	68fa      	ldr	r2, [r7, #12]
  401f58:	68bb      	ldr	r3, [r7, #8]
  401f5a:	429a      	cmp	r2, r3
  401f5c:	d90d      	bls.n	401f7a <Reset_Handler+0x32>
		for (; pDest < &_erelocate;) {
  401f5e:	e007      	b.n	401f70 <Reset_Handler+0x28>
			*pDest++ = *pSrc++;
  401f60:	68bb      	ldr	r3, [r7, #8]
  401f62:	1d1a      	adds	r2, r3, #4
  401f64:	60ba      	str	r2, [r7, #8]
  401f66:	68fa      	ldr	r2, [r7, #12]
  401f68:	1d11      	adds	r1, r2, #4
  401f6a:	60f9      	str	r1, [r7, #12]
  401f6c:	6812      	ldr	r2, [r2, #0]
  401f6e:	601a      	str	r2, [r3, #0]
	/* Initialize the relocate segment */
	pSrc = &_etext;
	pDest = &_srelocate;

	if (pSrc > pDest) {
		for (; pDest < &_erelocate;) {
  401f70:	68bb      	ldr	r3, [r7, #8]
  401f72:	4a20      	ldr	r2, [pc, #128]	; (401ff4 <Reset_Handler+0xac>)
  401f74:	4293      	cmp	r3, r2
  401f76:	d3f3      	bcc.n	401f60 <Reset_Handler+0x18>
  401f78:	e020      	b.n	401fbc <Reset_Handler+0x74>
			*pDest++ = *pSrc++;
		}
	} else if (pSrc < pDest) {
  401f7a:	68fa      	ldr	r2, [r7, #12]
  401f7c:	68bb      	ldr	r3, [r7, #8]
  401f7e:	429a      	cmp	r2, r3
  401f80:	d21c      	bcs.n	401fbc <Reset_Handler+0x74>
		uint32_t nb_bytes = (uint32_t)&_erelocate - (uint32_t)&_srelocate;
  401f82:	4a1c      	ldr	r2, [pc, #112]	; (401ff4 <Reset_Handler+0xac>)
  401f84:	4b1a      	ldr	r3, [pc, #104]	; (401ff0 <Reset_Handler+0xa8>)
  401f86:	1ad3      	subs	r3, r2, r3
  401f88:	607b      	str	r3, [r7, #4]
		pSrc = (uint32_t*)((uint32_t)pSrc + nb_bytes) - 1;
  401f8a:	68fa      	ldr	r2, [r7, #12]
  401f8c:	687b      	ldr	r3, [r7, #4]
  401f8e:	4413      	add	r3, r2
  401f90:	3b04      	subs	r3, #4
  401f92:	60fb      	str	r3, [r7, #12]
		pDest = (uint32_t*)((uint32_t)pDest + nb_bytes) - 1;
  401f94:	68ba      	ldr	r2, [r7, #8]
  401f96:	687b      	ldr	r3, [r7, #4]
  401f98:	4413      	add	r3, r2
  401f9a:	3b04      	subs	r3, #4
  401f9c:	60bb      	str	r3, [r7, #8]
		for (;nb_bytes;nb_bytes -= 4) {
  401f9e:	e00a      	b.n	401fb6 <Reset_Handler+0x6e>
			*pDest-- = *pSrc--;
  401fa0:	68bb      	ldr	r3, [r7, #8]
  401fa2:	1f1a      	subs	r2, r3, #4
  401fa4:	60ba      	str	r2, [r7, #8]
  401fa6:	68fa      	ldr	r2, [r7, #12]
  401fa8:	1f11      	subs	r1, r2, #4
  401faa:	60f9      	str	r1, [r7, #12]
  401fac:	6812      	ldr	r2, [r2, #0]
  401fae:	601a      	str	r2, [r3, #0]
		}
	} else if (pSrc < pDest) {
		uint32_t nb_bytes = (uint32_t)&_erelocate - (uint32_t)&_srelocate;
		pSrc = (uint32_t*)((uint32_t)pSrc + nb_bytes) - 1;
		pDest = (uint32_t*)((uint32_t)pDest + nb_bytes) - 1;
		for (;nb_bytes;nb_bytes -= 4) {
  401fb0:	687b      	ldr	r3, [r7, #4]
  401fb2:	3b04      	subs	r3, #4
  401fb4:	607b      	str	r3, [r7, #4]
  401fb6:	687b      	ldr	r3, [r7, #4]
  401fb8:	2b00      	cmp	r3, #0
  401fba:	d1f1      	bne.n	401fa0 <Reset_Handler+0x58>

    No Operation does nothing. This instruction can be used for code alignment purposes.
 */
__attribute__( ( always_inline ) ) __STATIC_INLINE void __NOP(void)
{
  __ASM volatile ("nop");
  401fbc:	bf00      	nop
		}
	}
	__NOP();

	/* Clear the zero segment */
	for (pDest = &_szero; pDest < &_ezero;) {
  401fbe:	4b0e      	ldr	r3, [pc, #56]	; (401ff8 <Reset_Handler+0xb0>)
  401fc0:	60bb      	str	r3, [r7, #8]
  401fc2:	e004      	b.n	401fce <Reset_Handler+0x86>
		*pDest++ = 0;
  401fc4:	68bb      	ldr	r3, [r7, #8]
  401fc6:	1d1a      	adds	r2, r3, #4
  401fc8:	60ba      	str	r2, [r7, #8]
  401fca:	2200      	movs	r2, #0
  401fcc:	601a      	str	r2, [r3, #0]
		}
	}
	__NOP();

	/* Clear the zero segment */
	for (pDest = &_szero; pDest < &_ezero;) {
  401fce:	68bb      	ldr	r3, [r7, #8]
  401fd0:	4a0a      	ldr	r2, [pc, #40]	; (401ffc <Reset_Handler+0xb4>)
  401fd2:	4293      	cmp	r3, r2
  401fd4:	d3f6      	bcc.n	401fc4 <Reset_Handler+0x7c>
		*pDest++ = 0;
	}

	/* Set the vector table base address */
	pSrc = (uint32_t *) & _sfixed;
  401fd6:	4b0a      	ldr	r3, [pc, #40]	; (402000 <Reset_Handler+0xb8>)
  401fd8:	60fb      	str	r3, [r7, #12]
	SCB->VTOR = ((uint32_t) pSrc);
  401fda:	4a0a      	ldr	r2, [pc, #40]	; (402004 <Reset_Handler+0xbc>)
  401fdc:	68fb      	ldr	r3, [r7, #12]
  401fde:	6093      	str	r3, [r2, #8]

	/* Initialize the C library */
	__libc_init_array();
  401fe0:	4b09      	ldr	r3, [pc, #36]	; (402008 <Reset_Handler+0xc0>)
  401fe2:	4798      	blx	r3

	/* Branch to main function */
	main();
  401fe4:	4b09      	ldr	r3, [pc, #36]	; (40200c <Reset_Handler+0xc4>)
  401fe6:	4798      	blx	r3

	/* Infinite loop */
	while (1);
  401fe8:	e7fe      	b.n	401fe8 <Reset_Handler+0xa0>
  401fea:	bf00      	nop
  401fec:	004033a0 	.word	0x004033a0
  401ff0:	20000000 	.word	0x20000000
  401ff4:	20000438 	.word	0x20000438
  401ff8:	20000438 	.word	0x20000438
  401ffc:	2000052c 	.word	0x2000052c
  402000:	00400000 	.word	0x00400000
  402004:	e000ed00 	.word	0xe000ed00
  402008:	00403219 	.word	0x00403219
  40200c:	0040231d 	.word	0x0040231d

00402010 <Dummy_Handler>:

/**
 * \brief Default interrupt handler for unused IRQs.
 */
void Dummy_Handler(void)
{
  402010:	b480      	push	{r7}
  402012:	af00      	add	r7, sp, #0
	while (1) {
	}
  402014:	e7fe      	b.n	402014 <Dummy_Handler+0x4>
  402016:	bf00      	nop

00402018 <SystemCoreClockUpdate>:

/**
 * \brief Get Core Clock Frequency.
 */
void SystemCoreClockUpdate( void )
{
  402018:	b480      	push	{r7}
  40201a:	af00      	add	r7, sp, #0
	/* Determine clock frequency according to clock register values */
	switch ( PMC->PMC_MCKR & (uint32_t) PMC_MCKR_CSS_Msk ) {
  40201c:	4b5d      	ldr	r3, [pc, #372]	; (402194 <SystemCoreClockUpdate+0x17c>)
  40201e:	6b1b      	ldr	r3, [r3, #48]	; 0x30
  402020:	f003 0303 	and.w	r3, r3, #3
  402024:	2b03      	cmp	r3, #3
  402026:	f200 8096 	bhi.w	402156 <SystemCoreClockUpdate+0x13e>
  40202a:	a201      	add	r2, pc, #4	; (adr r2, 402030 <SystemCoreClockUpdate+0x18>)
  40202c:	f852 f023 	ldr.w	pc, [r2, r3, lsl #2]
  402030:	00402041 	.word	0x00402041
  402034:	00402061 	.word	0x00402061
  402038:	004020ab 	.word	0x004020ab
  40203c:	004020ab 	.word	0x004020ab
	case PMC_MCKR_CSS_SLOW_CLK: /* Slow clock */
			if ( SUPC->SUPC_SR & SUPC_SR_OSCSEL ) {
  402040:	4b55      	ldr	r3, [pc, #340]	; (402198 <SystemCoreClockUpdate+0x180>)
  402042:	695b      	ldr	r3, [r3, #20]
  402044:	f003 0380 	and.w	r3, r3, #128	; 0x80
  402048:	2b00      	cmp	r3, #0
  40204a:	d004      	beq.n	402056 <SystemCoreClockUpdate+0x3e>
				SystemCoreClock = CHIP_FREQ_XTAL_32K;
  40204c:	4b53      	ldr	r3, [pc, #332]	; (40219c <SystemCoreClockUpdate+0x184>)
  40204e:	f44f 4200 	mov.w	r2, #32768	; 0x8000
  402052:	601a      	str	r2, [r3, #0]
			} else {
				SystemCoreClock = CHIP_FREQ_SLCK_RC;
			}
		break;
  402054:	e080      	b.n	402158 <SystemCoreClockUpdate+0x140>
	switch ( PMC->PMC_MCKR & (uint32_t) PMC_MCKR_CSS_Msk ) {
	case PMC_MCKR_CSS_SLOW_CLK: /* Slow clock */
			if ( SUPC->SUPC_SR & SUPC_SR_OSCSEL ) {
				SystemCoreClock = CHIP_FREQ_XTAL_32K;
			} else {
				SystemCoreClock = CHIP_FREQ_SLCK_RC;
  402056:	4b51      	ldr	r3, [pc, #324]	; (40219c <SystemCoreClockUpdate+0x184>)
  402058:	f44f 42fa 	mov.w	r2, #32000	; 0x7d00
  40205c:	601a      	str	r2, [r3, #0]
			}
		break;
  40205e:	e07b      	b.n	402158 <SystemCoreClockUpdate+0x140>
		
	case PMC_MCKR_CSS_MAIN_CLK: /* Main clock */
		if ( PMC->CKGR_MOR & CKGR_MOR_MOSCSEL ) {
  402060:	4b4c      	ldr	r3, [pc, #304]	; (402194 <SystemCoreClockUpdate+0x17c>)
  402062:	6a1b      	ldr	r3, [r3, #32]
  402064:	f003 7380 	and.w	r3, r3, #16777216	; 0x1000000
  402068:	2b00      	cmp	r3, #0
  40206a:	d003      	beq.n	402074 <SystemCoreClockUpdate+0x5c>
			SystemCoreClock = CHIP_FREQ_XTAL;
  40206c:	4b4b      	ldr	r3, [pc, #300]	; (40219c <SystemCoreClockUpdate+0x184>)
  40206e:	4a4c      	ldr	r2, [pc, #304]	; (4021a0 <SystemCoreClockUpdate+0x188>)
  402070:	601a      	str	r2, [r3, #0]
			
			default:
			break;
			}
		}
		break;
  402072:	e071      	b.n	402158 <SystemCoreClockUpdate+0x140>
		
	case PMC_MCKR_CSS_MAIN_CLK: /* Main clock */
		if ( PMC->CKGR_MOR & CKGR_MOR_MOSCSEL ) {
			SystemCoreClock = CHIP_FREQ_XTAL;
		} else {
			SystemCoreClock = CHIP_FREQ_MAINCK_RC_4MHZ;
  402074:	4b49      	ldr	r3, [pc, #292]	; (40219c <SystemCoreClockUpdate+0x184>)
  402076:	4a4b      	ldr	r2, [pc, #300]	; (4021a4 <SystemCoreClockUpdate+0x18c>)
  402078:	601a      	str	r2, [r3, #0]
			
			switch ( PMC->CKGR_MOR & CKGR_MOR_MOSCRCF_Msk ) {
  40207a:	4b46      	ldr	r3, [pc, #280]	; (402194 <SystemCoreClockUpdate+0x17c>)
  40207c:	6a1b      	ldr	r3, [r3, #32]
  40207e:	f003 0370 	and.w	r3, r3, #112	; 0x70
  402082:	2b10      	cmp	r3, #16
  402084:	d008      	beq.n	402098 <SystemCoreClockUpdate+0x80>
  402086:	2b20      	cmp	r3, #32
  402088:	d00a      	beq.n	4020a0 <SystemCoreClockUpdate+0x88>
  40208a:	2b00      	cmp	r3, #0
  40208c:	d000      	beq.n	402090 <SystemCoreClockUpdate+0x78>
			case CKGR_MOR_MOSCRCF_12_MHz:
				SystemCoreClock = CHIP_FREQ_MAINCK_RC_12MHZ;
			break;
			
			default:
			break;
  40208e:	e00b      	b.n	4020a8 <SystemCoreClockUpdate+0x90>
		} else {
			SystemCoreClock = CHIP_FREQ_MAINCK_RC_4MHZ;
			
			switch ( PMC->CKGR_MOR & CKGR_MOR_MOSCRCF_Msk ) {
			case CKGR_MOR_MOSCRCF_4_MHz:
				SystemCoreClock = CHIP_FREQ_MAINCK_RC_4MHZ;
  402090:	4b42      	ldr	r3, [pc, #264]	; (40219c <SystemCoreClockUpdate+0x184>)
  402092:	4a44      	ldr	r2, [pc, #272]	; (4021a4 <SystemCoreClockUpdate+0x18c>)
  402094:	601a      	str	r2, [r3, #0]
			break;
  402096:	e007      	b.n	4020a8 <SystemCoreClockUpdate+0x90>
			
			case CKGR_MOR_MOSCRCF_8_MHz:
				SystemCoreClock = CHIP_FREQ_MAINCK_RC_8MHZ;
  402098:	4b40      	ldr	r3, [pc, #256]	; (40219c <SystemCoreClockUpdate+0x184>)
  40209a:	4a43      	ldr	r2, [pc, #268]	; (4021a8 <SystemCoreClockUpdate+0x190>)
  40209c:	601a      	str	r2, [r3, #0]
			break;
  40209e:	e003      	b.n	4020a8 <SystemCoreClockUpdate+0x90>
			
			case CKGR_MOR_MOSCRCF_12_MHz:
				SystemCoreClock = CHIP_FREQ_MAINCK_RC_12MHZ;
  4020a0:	4b3e      	ldr	r3, [pc, #248]	; (40219c <SystemCoreClockUpdate+0x184>)
  4020a2:	4a3f      	ldr	r2, [pc, #252]	; (4021a0 <SystemCoreClockUpdate+0x188>)
  4020a4:	601a      	str	r2, [r3, #0]
			break;
  4020a6:	bf00      	nop
			
			default:
			break;
			}
		}
		break;
  4020a8:	e056      	b.n	402158 <SystemCoreClockUpdate+0x140>
		
	case PMC_MCKR_CSS_PLLA_CLK:	/* PLLA clock */
	case PMC_MCKR_CSS_PLLB_CLK:	/* PLLB clock */
			if ( PMC->CKGR_MOR & CKGR_MOR_MOSCSEL ) {
  4020aa:	4b3a      	ldr	r3, [pc, #232]	; (402194 <SystemCoreClockUpdate+0x17c>)
  4020ac:	6a1b      	ldr	r3, [r3, #32]
  4020ae:	f003 7380 	and.w	r3, r3, #16777216	; 0x1000000
  4020b2:	2b00      	cmp	r3, #0
  4020b4:	d003      	beq.n	4020be <SystemCoreClockUpdate+0xa6>
				SystemCoreClock = CHIP_FREQ_XTAL;
  4020b6:	4b39      	ldr	r3, [pc, #228]	; (40219c <SystemCoreClockUpdate+0x184>)
  4020b8:	4a39      	ldr	r2, [pc, #228]	; (4021a0 <SystemCoreClockUpdate+0x188>)
  4020ba:	601a      	str	r2, [r3, #0]
  4020bc:	e019      	b.n	4020f2 <SystemCoreClockUpdate+0xda>
			} else {
				SystemCoreClock = CHIP_FREQ_MAINCK_RC_4MHZ;
  4020be:	4b37      	ldr	r3, [pc, #220]	; (40219c <SystemCoreClockUpdate+0x184>)
  4020c0:	4a38      	ldr	r2, [pc, #224]	; (4021a4 <SystemCoreClockUpdate+0x18c>)
  4020c2:	601a      	str	r2, [r3, #0]
				
				switch ( PMC->CKGR_MOR & CKGR_MOR_MOSCRCF_Msk ) {
  4020c4:	4b33      	ldr	r3, [pc, #204]	; (402194 <SystemCoreClockUpdate+0x17c>)
  4020c6:	6a1b      	ldr	r3, [r3, #32]
  4020c8:	f003 0370 	and.w	r3, r3, #112	; 0x70
  4020cc:	2b10      	cmp	r3, #16
  4020ce:	d008      	beq.n	4020e2 <SystemCoreClockUpdate+0xca>
  4020d0:	2b20      	cmp	r3, #32
  4020d2:	d00a      	beq.n	4020ea <SystemCoreClockUpdate+0xd2>
  4020d4:	2b00      	cmp	r3, #0
  4020d6:	d000      	beq.n	4020da <SystemCoreClockUpdate+0xc2>
				case CKGR_MOR_MOSCRCF_12_MHz:
					SystemCoreClock = CHIP_FREQ_MAINCK_RC_12MHZ;
					break;
				
				default:
					break;
  4020d8:	e00b      	b.n	4020f2 <SystemCoreClockUpdate+0xda>
			} else {
				SystemCoreClock = CHIP_FREQ_MAINCK_RC_4MHZ;
				
				switch ( PMC->CKGR_MOR & CKGR_MOR_MOSCRCF_Msk ) {
				case CKGR_MOR_MOSCRCF_4_MHz:
					SystemCoreClock = CHIP_FREQ_MAINCK_RC_4MHZ;
  4020da:	4b30      	ldr	r3, [pc, #192]	; (40219c <SystemCoreClockUpdate+0x184>)
  4020dc:	4a31      	ldr	r2, [pc, #196]	; (4021a4 <SystemCoreClockUpdate+0x18c>)
  4020de:	601a      	str	r2, [r3, #0]
					break;
  4020e0:	e007      	b.n	4020f2 <SystemCoreClockUpdate+0xda>
				
				case CKGR_MOR_MOSCRCF_8_MHz:
					SystemCoreClock = CHIP_FREQ_MAINCK_RC_8MHZ;
  4020e2:	4b2e      	ldr	r3, [pc, #184]	; (40219c <SystemCoreClockUpdate+0x184>)
  4020e4:	4a30      	ldr	r2, [pc, #192]	; (4021a8 <SystemCoreClockUpdate+0x190>)
  4020e6:	601a      	str	r2, [r3, #0]
					break;
  4020e8:	e003      	b.n	4020f2 <SystemCoreClockUpdate+0xda>
				
				case CKGR_MOR_MOSCRCF_12_MHz:
					SystemCoreClock = CHIP_FREQ_MAINCK_RC_12MHZ;
  4020ea:	4b2c      	ldr	r3, [pc, #176]	; (40219c <SystemCoreClockUpdate+0x184>)
  4020ec:	4a2c      	ldr	r2, [pc, #176]	; (4021a0 <SystemCoreClockUpdate+0x188>)
  4020ee:	601a      	str	r2, [r3, #0]
					break;
  4020f0:	bf00      	nop
				default:
					break;
				}
			}
			
			if ( (uint32_t)(PMC->PMC_MCKR & (uint32_t) PMC_MCKR_CSS_Msk) ==
  4020f2:	4b28      	ldr	r3, [pc, #160]	; (402194 <SystemCoreClockUpdate+0x17c>)
  4020f4:	6b1b      	ldr	r3, [r3, #48]	; 0x30
  4020f6:	f003 0303 	and.w	r3, r3, #3
  4020fa:	2b02      	cmp	r3, #2
  4020fc:	d115      	bne.n	40212a <SystemCoreClockUpdate+0x112>
					PMC_MCKR_CSS_PLLA_CLK ) {
				SystemCoreClock *= ((((PMC->CKGR_PLLAR) & CKGR_PLLAR_MULA_Msk)
  4020fe:	4b25      	ldr	r3, [pc, #148]	; (402194 <SystemCoreClockUpdate+0x17c>)
  402100:	6a9a      	ldr	r2, [r3, #40]	; 0x28
  402102:	4b2a      	ldr	r3, [pc, #168]	; (4021ac <SystemCoreClockUpdate+0x194>)
  402104:	4013      	ands	r3, r2
						>> CKGR_PLLAR_MULA_Pos) + 1U);
  402106:	0c1b      	lsrs	r3, r3, #16
  402108:	3301      	adds	r3, #1
				}
			}
			
			if ( (uint32_t)(PMC->PMC_MCKR & (uint32_t) PMC_MCKR_CSS_Msk) ==
					PMC_MCKR_CSS_PLLA_CLK ) {
				SystemCoreClock *= ((((PMC->CKGR_PLLAR) & CKGR_PLLAR_MULA_Msk)
  40210a:	4a24      	ldr	r2, [pc, #144]	; (40219c <SystemCoreClockUpdate+0x184>)
  40210c:	6812      	ldr	r2, [r2, #0]
  40210e:	fb02 f303 	mul.w	r3, r2, r3
  402112:	4a22      	ldr	r2, [pc, #136]	; (40219c <SystemCoreClockUpdate+0x184>)
  402114:	6013      	str	r3, [r2, #0]
						>> CKGR_PLLAR_MULA_Pos) + 1U);
				SystemCoreClock /= ((((PMC->CKGR_PLLAR) & CKGR_PLLAR_DIVA_Msk)
  402116:	4b1f      	ldr	r3, [pc, #124]	; (402194 <SystemCoreClockUpdate+0x17c>)
  402118:	6a9b      	ldr	r3, [r3, #40]	; 0x28
						>> CKGR_PLLAR_DIVA_Pos));
  40211a:	b2db      	uxtb	r3, r3
			
			if ( (uint32_t)(PMC->PMC_MCKR & (uint32_t) PMC_MCKR_CSS_Msk) ==
					PMC_MCKR_CSS_PLLA_CLK ) {
				SystemCoreClock *= ((((PMC->CKGR_PLLAR) & CKGR_PLLAR_MULA_Msk)
						>> CKGR_PLLAR_MULA_Pos) + 1U);
				SystemCoreClock /= ((((PMC->CKGR_PLLAR) & CKGR_PLLAR_DIVA_Msk)
  40211c:	4a1f      	ldr	r2, [pc, #124]	; (40219c <SystemCoreClockUpdate+0x184>)
  40211e:	6812      	ldr	r2, [r2, #0]
  402120:	fbb2 f3f3 	udiv	r3, r2, r3
  402124:	4a1d      	ldr	r2, [pc, #116]	; (40219c <SystemCoreClockUpdate+0x184>)
  402126:	6013      	str	r3, [r2, #0]
				SystemCoreClock *= ((((PMC->CKGR_PLLBR) & CKGR_PLLBR_MULB_Msk)
						>> CKGR_PLLBR_MULB_Pos) + 1U);
				SystemCoreClock /= ((((PMC->CKGR_PLLBR) & CKGR_PLLBR_DIVB_Msk)
						>> CKGR_PLLBR_DIVB_Pos));
			}
		break;
  402128:	e016      	b.n	402158 <SystemCoreClockUpdate+0x140>
				SystemCoreClock *= ((((PMC->CKGR_PLLAR) & CKGR_PLLAR_MULA_Msk)
						>> CKGR_PLLAR_MULA_Pos) + 1U);
				SystemCoreClock /= ((((PMC->CKGR_PLLAR) & CKGR_PLLAR_DIVA_Msk)
						>> CKGR_PLLAR_DIVA_Pos));
			} else {
				SystemCoreClock *= ((((PMC->CKGR_PLLBR) & CKGR_PLLBR_MULB_Msk)
  40212a:	4b1a      	ldr	r3, [pc, #104]	; (402194 <SystemCoreClockUpdate+0x17c>)
  40212c:	6ada      	ldr	r2, [r3, #44]	; 0x2c
  40212e:	4b1f      	ldr	r3, [pc, #124]	; (4021ac <SystemCoreClockUpdate+0x194>)
  402130:	4013      	ands	r3, r2
						>> CKGR_PLLBR_MULB_Pos) + 1U);
  402132:	0c1b      	lsrs	r3, r3, #16
  402134:	3301      	adds	r3, #1
				SystemCoreClock *= ((((PMC->CKGR_PLLAR) & CKGR_PLLAR_MULA_Msk)
						>> CKGR_PLLAR_MULA_Pos) + 1U);
				SystemCoreClock /= ((((PMC->CKGR_PLLAR) & CKGR_PLLAR_DIVA_Msk)
						>> CKGR_PLLAR_DIVA_Pos));
			} else {
				SystemCoreClock *= ((((PMC->CKGR_PLLBR) & CKGR_PLLBR_MULB_Msk)
  402136:	4a19      	ldr	r2, [pc, #100]	; (40219c <SystemCoreClockUpdate+0x184>)
  402138:	6812      	ldr	r2, [r2, #0]
  40213a:	fb02 f303 	mul.w	r3, r2, r3
  40213e:	4a17      	ldr	r2, [pc, #92]	; (40219c <SystemCoreClockUpdate+0x184>)
  402140:	6013      	str	r3, [r2, #0]
						>> CKGR_PLLBR_MULB_Pos) + 1U);
				SystemCoreClock /= ((((PMC->CKGR_PLLBR) & CKGR_PLLBR_DIVB_Msk)
  402142:	4b14      	ldr	r3, [pc, #80]	; (402194 <SystemCoreClockUpdate+0x17c>)
  402144:	6adb      	ldr	r3, [r3, #44]	; 0x2c
						>> CKGR_PLLBR_DIVB_Pos));
  402146:	b2db      	uxtb	r3, r3
				SystemCoreClock /= ((((PMC->CKGR_PLLAR) & CKGR_PLLAR_DIVA_Msk)
						>> CKGR_PLLAR_DIVA_Pos));
			} else {
				SystemCoreClock *= ((((PMC->CKGR_PLLBR) & CKGR_PLLBR_MULB_Msk)
						>> CKGR_PLLBR_MULB_Pos) + 1U);
				SystemCoreClock /= ((((PMC->CKGR_PLLBR) & CKGR_PLLBR_DIVB_Msk)
  402148:	4a14      	ldr	r2, [pc, #80]	; (40219c <SystemCoreClockUpdate+0x184>)
  40214a:	6812      	ldr	r2, [r2, #0]
  40214c:	fbb2 f3f3 	udiv	r3, r2, r3
  402150:	4a12      	ldr	r2, [pc, #72]	; (40219c <SystemCoreClockUpdate+0x184>)
  402152:	6013      	str	r3, [r2, #0]
						>> CKGR_PLLBR_DIVB_Pos));
			}
		break;
  402154:	e000      	b.n	402158 <SystemCoreClockUpdate+0x140>
		
	default:
		break;
  402156:	bf00      	nop
	}

	if ( (PMC->PMC_MCKR & PMC_MCKR_PRES_Msk) == PMC_MCKR_PRES_CLK_3 ) {
  402158:	4b0e      	ldr	r3, [pc, #56]	; (402194 <SystemCoreClockUpdate+0x17c>)
  40215a:	6b1b      	ldr	r3, [r3, #48]	; 0x30
  40215c:	f003 0370 	and.w	r3, r3, #112	; 0x70
  402160:	2b70      	cmp	r3, #112	; 0x70
  402162:	d108      	bne.n	402176 <SystemCoreClockUpdate+0x15e>
		SystemCoreClock /= 3U;
  402164:	4b0d      	ldr	r3, [pc, #52]	; (40219c <SystemCoreClockUpdate+0x184>)
  402166:	681b      	ldr	r3, [r3, #0]
  402168:	4a11      	ldr	r2, [pc, #68]	; (4021b0 <SystemCoreClockUpdate+0x198>)
  40216a:	fba2 2303 	umull	r2, r3, r2, r3
  40216e:	085b      	lsrs	r3, r3, #1
  402170:	4a0a      	ldr	r2, [pc, #40]	; (40219c <SystemCoreClockUpdate+0x184>)
  402172:	6013      	str	r3, [r2, #0]
	} else {
		SystemCoreClock >>=
			((PMC->PMC_MCKR & PMC_MCKR_PRES_Msk) >> PMC_MCKR_PRES_Pos);
	}
}
  402174:	e00a      	b.n	40218c <SystemCoreClockUpdate+0x174>

	if ( (PMC->PMC_MCKR & PMC_MCKR_PRES_Msk) == PMC_MCKR_PRES_CLK_3 ) {
		SystemCoreClock /= 3U;
	} else {
		SystemCoreClock >>=
			((PMC->PMC_MCKR & PMC_MCKR_PRES_Msk) >> PMC_MCKR_PRES_Pos);
  402176:	4b07      	ldr	r3, [pc, #28]	; (402194 <SystemCoreClockUpdate+0x17c>)
  402178:	6b1b      	ldr	r3, [r3, #48]	; 0x30
  40217a:	f003 0370 	and.w	r3, r3, #112	; 0x70
  40217e:	091b      	lsrs	r3, r3, #4
	}

	if ( (PMC->PMC_MCKR & PMC_MCKR_PRES_Msk) == PMC_MCKR_PRES_CLK_3 ) {
		SystemCoreClock /= 3U;
	} else {
		SystemCoreClock >>=
  402180:	4a06      	ldr	r2, [pc, #24]	; (40219c <SystemCoreClockUpdate+0x184>)
  402182:	6812      	ldr	r2, [r2, #0]
  402184:	fa22 f303 	lsr.w	r3, r2, r3
  402188:	4a04      	ldr	r2, [pc, #16]	; (40219c <SystemCoreClockUpdate+0x184>)
  40218a:	6013      	str	r3, [r2, #0]
			((PMC->PMC_MCKR & PMC_MCKR_PRES_Msk) >> PMC_MCKR_PRES_Pos);
	}
}
  40218c:	bf00      	nop
  40218e:	46bd      	mov	sp, r7
  402190:	bc80      	pop	{r7}
  402192:	4770      	bx	lr
  402194:	400e0400 	.word	0x400e0400
  402198:	400e1410 	.word	0x400e1410
  40219c:	2000000c 	.word	0x2000000c
  4021a0:	00b71b00 	.word	0x00b71b00
  4021a4:	003d0900 	.word	0x003d0900
  4021a8:	007a1200 	.word	0x007a1200
  4021ac:	07ff0000 	.word	0x07ff0000
  4021b0:	aaaaaaab 	.word	0xaaaaaaab

004021b4 <system_init_flash>:
 * \brief Initialize flash wait state according to operating frequency.
 *
 * \param ul_clk System clock frequency.
 */
void system_init_flash( uint32_t ul_clk )
{
  4021b4:	b480      	push	{r7}
  4021b6:	b083      	sub	sp, #12
  4021b8:	af00      	add	r7, sp, #0
  4021ba:	6078      	str	r0, [r7, #4]
  /* Set FWS for embedded Flash access according to operating frequency */
#if !defined(ID_EFC1)
	if ( ul_clk < CHIP_FREQ_FWS_0 ) {
  4021bc:	687b      	ldr	r3, [r7, #4]
  4021be:	4a18      	ldr	r2, [pc, #96]	; (402220 <system_init_flash+0x6c>)
  4021c0:	4293      	cmp	r3, r2
  4021c2:	d804      	bhi.n	4021ce <system_init_flash+0x1a>
		EFC0->EEFC_FMR = EEFC_FMR_FWS(0)|EEFC_FMR_CLOE;
  4021c4:	4b17      	ldr	r3, [pc, #92]	; (402224 <system_init_flash+0x70>)
  4021c6:	f04f 6280 	mov.w	r2, #67108864	; 0x4000000
  4021ca:	601a      	str	r2, [r3, #0]
				}
			}
		}
	}
#endif
}
  4021cc:	e023      	b.n	402216 <system_init_flash+0x62>
  /* Set FWS for embedded Flash access according to operating frequency */
#if !defined(ID_EFC1)
	if ( ul_clk < CHIP_FREQ_FWS_0 ) {
		EFC0->EEFC_FMR = EEFC_FMR_FWS(0)|EEFC_FMR_CLOE;
	} else {
		if ( ul_clk < CHIP_FREQ_FWS_1 ) {
  4021ce:	687b      	ldr	r3, [r7, #4]
  4021d0:	4a15      	ldr	r2, [pc, #84]	; (402228 <system_init_flash+0x74>)
  4021d2:	4293      	cmp	r3, r2
  4021d4:	d803      	bhi.n	4021de <system_init_flash+0x2a>
			EFC0->EEFC_FMR = EEFC_FMR_FWS(1)|EEFC_FMR_CLOE;
  4021d6:	4b13      	ldr	r3, [pc, #76]	; (402224 <system_init_flash+0x70>)
  4021d8:	4a14      	ldr	r2, [pc, #80]	; (40222c <system_init_flash+0x78>)
  4021da:	601a      	str	r2, [r3, #0]
				}
			}
		}
	}
#endif
}
  4021dc:	e01b      	b.n	402216 <system_init_flash+0x62>
		EFC0->EEFC_FMR = EEFC_FMR_FWS(0)|EEFC_FMR_CLOE;
	} else {
		if ( ul_clk < CHIP_FREQ_FWS_1 ) {
			EFC0->EEFC_FMR = EEFC_FMR_FWS(1)|EEFC_FMR_CLOE;
		} else {
			if ( ul_clk < CHIP_FREQ_FWS_2 ) {
  4021de:	687b      	ldr	r3, [r7, #4]
  4021e0:	4a13      	ldr	r2, [pc, #76]	; (402230 <system_init_flash+0x7c>)
  4021e2:	4293      	cmp	r3, r2
  4021e4:	d803      	bhi.n	4021ee <system_init_flash+0x3a>
				EFC0->EEFC_FMR = EEFC_FMR_FWS(2)|EEFC_FMR_CLOE;
  4021e6:	4b0f      	ldr	r3, [pc, #60]	; (402224 <system_init_flash+0x70>)
  4021e8:	4a12      	ldr	r2, [pc, #72]	; (402234 <system_init_flash+0x80>)
  4021ea:	601a      	str	r2, [r3, #0]
				}
			}
		}
	}
#endif
}
  4021ec:	e013      	b.n	402216 <system_init_flash+0x62>
			EFC0->EEFC_FMR = EEFC_FMR_FWS(1)|EEFC_FMR_CLOE;
		} else {
			if ( ul_clk < CHIP_FREQ_FWS_2 ) {
				EFC0->EEFC_FMR = EEFC_FMR_FWS(2)|EEFC_FMR_CLOE;
			} else {
				if ( ul_clk < CHIP_FREQ_FWS_3 ) {
  4021ee:	687b      	ldr	r3, [r7, #4]
  4021f0:	4a11      	ldr	r2, [pc, #68]	; (402238 <system_init_flash+0x84>)
  4021f2:	4293      	cmp	r3, r2
  4021f4:	d803      	bhi.n	4021fe <system_init_flash+0x4a>
					EFC0->EEFC_FMR = EEFC_FMR_FWS(3)|EEFC_FMR_CLOE;
  4021f6:	4b0b      	ldr	r3, [pc, #44]	; (402224 <system_init_flash+0x70>)
  4021f8:	4a10      	ldr	r2, [pc, #64]	; (40223c <system_init_flash+0x88>)
  4021fa:	601a      	str	r2, [r3, #0]
				}
			}
		}
	}
#endif
}
  4021fc:	e00b      	b.n	402216 <system_init_flash+0x62>
				EFC0->EEFC_FMR = EEFC_FMR_FWS(2)|EEFC_FMR_CLOE;
			} else {
				if ( ul_clk < CHIP_FREQ_FWS_3 ) {
					EFC0->EEFC_FMR = EEFC_FMR_FWS(3)|EEFC_FMR_CLOE;
				} else {
					if ( ul_clk < CHIP_FREQ_FWS_4 ) {
  4021fe:	687b      	ldr	r3, [r7, #4]
  402200:	4a0f      	ldr	r2, [pc, #60]	; (402240 <system_init_flash+0x8c>)
  402202:	4293      	cmp	r3, r2
  402204:	d804      	bhi.n	402210 <system_init_flash+0x5c>
					EFC0->EEFC_FMR = EEFC_FMR_FWS(4)|EEFC_FMR_CLOE;
  402206:	4b07      	ldr	r3, [pc, #28]	; (402224 <system_init_flash+0x70>)
  402208:	f04f 2204 	mov.w	r2, #67109888	; 0x4000400
  40220c:	601a      	str	r2, [r3, #0]
				}
			}
		}
	}
#endif
}
  40220e:	e002      	b.n	402216 <system_init_flash+0x62>
					EFC0->EEFC_FMR = EEFC_FMR_FWS(3)|EEFC_FMR_CLOE;
				} else {
					if ( ul_clk < CHIP_FREQ_FWS_4 ) {
					EFC0->EEFC_FMR = EEFC_FMR_FWS(4)|EEFC_FMR_CLOE;
					} else {
					EFC0->EEFC_FMR = EEFC_FMR_FWS(5)|EEFC_FMR_CLOE;
  402210:	4b04      	ldr	r3, [pc, #16]	; (402224 <system_init_flash+0x70>)
  402212:	4a0c      	ldr	r2, [pc, #48]	; (402244 <system_init_flash+0x90>)
  402214:	601a      	str	r2, [r3, #0]
				}
			}
		}
	}
#endif
}
  402216:	bf00      	nop
  402218:	370c      	adds	r7, #12
  40221a:	46bd      	mov	sp, r7
  40221c:	bc80      	pop	{r7}
  40221e:	4770      	bx	lr
  402220:	01312cff 	.word	0x01312cff
  402224:	400e0a00 	.word	0x400e0a00
  402228:	026259ff 	.word	0x026259ff
  40222c:	04000100 	.word	0x04000100
  402230:	039386ff 	.word	0x039386ff
  402234:	04000200 	.word	0x04000200
  402238:	04c4b3ff 	.word	0x04c4b3ff
  40223c:	04000300 	.word	0x04000300
  402240:	05f5e0ff 	.word	0x05f5e0ff
  402244:	04000500 	.word	0x04000500

00402248 <osc_get_rate>:

	return 0;
}

static inline uint32_t osc_get_rate(uint32_t ul_id)
{
  402248:	b480      	push	{r7}
  40224a:	b083      	sub	sp, #12
  40224c:	af00      	add	r7, sp, #0
  40224e:	6078      	str	r0, [r7, #4]
	switch (ul_id) {
  402250:	687b      	ldr	r3, [r7, #4]
  402252:	2b07      	cmp	r3, #7
  402254:	d825      	bhi.n	4022a2 <osc_get_rate+0x5a>
  402256:	a201      	add	r2, pc, #4	; (adr r2, 40225c <osc_get_rate+0x14>)
  402258:	f852 f023 	ldr.w	pc, [r2, r3, lsl #2]
  40225c:	0040227d 	.word	0x0040227d
  402260:	00402283 	.word	0x00402283
  402264:	00402289 	.word	0x00402289
  402268:	0040228f 	.word	0x0040228f
  40226c:	00402293 	.word	0x00402293
  402270:	00402297 	.word	0x00402297
  402274:	0040229b 	.word	0x0040229b
  402278:	0040229f 	.word	0x0040229f
	case OSC_SLCK_32K_RC:
		return OSC_SLCK_32K_RC_HZ;
  40227c:	f44f 43fa 	mov.w	r3, #32000	; 0x7d00
  402280:	e010      	b.n	4022a4 <osc_get_rate+0x5c>

	case OSC_SLCK_32K_XTAL:
		return BOARD_FREQ_SLCK_XTAL;
  402282:	f44f 4300 	mov.w	r3, #32768	; 0x8000
  402286:	e00d      	b.n	4022a4 <osc_get_rate+0x5c>

	case OSC_SLCK_32K_BYPASS:
		return BOARD_FREQ_SLCK_BYPASS;
  402288:	f44f 4300 	mov.w	r3, #32768	; 0x8000
  40228c:	e00a      	b.n	4022a4 <osc_get_rate+0x5c>

	case OSC_MAINCK_4M_RC:
		return OSC_MAINCK_4M_RC_HZ;
  40228e:	4b08      	ldr	r3, [pc, #32]	; (4022b0 <osc_get_rate+0x68>)
  402290:	e008      	b.n	4022a4 <osc_get_rate+0x5c>

	case OSC_MAINCK_8M_RC:
		return OSC_MAINCK_8M_RC_HZ;
  402292:	4b08      	ldr	r3, [pc, #32]	; (4022b4 <osc_get_rate+0x6c>)
  402294:	e006      	b.n	4022a4 <osc_get_rate+0x5c>

	case OSC_MAINCK_12M_RC:
		return OSC_MAINCK_12M_RC_HZ;
  402296:	4b08      	ldr	r3, [pc, #32]	; (4022b8 <osc_get_rate+0x70>)
  402298:	e004      	b.n	4022a4 <osc_get_rate+0x5c>

	case OSC_MAINCK_XTAL:
		return BOARD_FREQ_MAINCK_XTAL;
  40229a:	4b07      	ldr	r3, [pc, #28]	; (4022b8 <osc_get_rate+0x70>)
  40229c:	e002      	b.n	4022a4 <osc_get_rate+0x5c>

	case OSC_MAINCK_BYPASS:
		return BOARD_FREQ_MAINCK_BYPASS;
  40229e:	4b06      	ldr	r3, [pc, #24]	; (4022b8 <osc_get_rate+0x70>)
  4022a0:	e000      	b.n	4022a4 <osc_get_rate+0x5c>
	}

	return 0;
  4022a2:	2300      	movs	r3, #0
}
  4022a4:	4618      	mov	r0, r3
  4022a6:	370c      	adds	r7, #12
  4022a8:	46bd      	mov	sp, r7
  4022aa:	bc80      	pop	{r7}
  4022ac:	4770      	bx	lr
  4022ae:	bf00      	nop
  4022b0:	003d0900 	.word	0x003d0900
  4022b4:	007a1200 	.word	0x007a1200
  4022b8:	00b71b00 	.word	0x00b71b00

004022bc <sysclk_get_main_hz>:
 */
#if (defined CONFIG_SYSCLK_DEFAULT_RETURNS_SLOW_OSC)
extern uint32_t sysclk_initialized;
#endif
static inline uint32_t sysclk_get_main_hz(void)
{
  4022bc:	b580      	push	{r7, lr}
  4022be:	af00      	add	r7, sp, #0
	} else if (CONFIG_SYSCLK_SOURCE == SYSCLK_SRC_MAINCK_BYPASS) {
		return OSC_MAINCK_BYPASS_HZ;
	}
#ifdef CONFIG_PLL0_SOURCE
	else if (CONFIG_SYSCLK_SOURCE == SYSCLK_SRC_PLLACK) {
		return pll_get_default_rate(0);
  4022c0:	2006      	movs	r0, #6
  4022c2:	4b04      	ldr	r3, [pc, #16]	; (4022d4 <sysclk_get_main_hz+0x18>)
  4022c4:	4798      	blx	r3
  4022c6:	4602      	mov	r2, r0
  4022c8:	4613      	mov	r3, r2
  4022ca:	009b      	lsls	r3, r3, #2
  4022cc:	4413      	add	r3, r2
  4022ce:	009b      	lsls	r3, r3, #2

	else {
		/* unhandled_case(CONFIG_SYSCLK_SOURCE); */
		return 0;
	}
}
  4022d0:	4618      	mov	r0, r3
  4022d2:	bd80      	pop	{r7, pc}
  4022d4:	00402249 	.word	0x00402249

004022d8 <sysclk_get_cpu_hz>:
 * clocks.
 *
 * \return Frequency of the CPU clock, in Hz.
 */
static inline uint32_t sysclk_get_cpu_hz(void)
{
  4022d8:	b580      	push	{r7, lr}
  4022da:	af00      	add	r7, sp, #0
	/* CONFIG_SYSCLK_PRES is the register value for setting the expected */
	/* prescaler, not an immediate value. */
	return sysclk_get_main_hz() /
  4022dc:	4b02      	ldr	r3, [pc, #8]	; (4022e8 <sysclk_get_cpu_hz+0x10>)
  4022de:	4798      	blx	r3
  4022e0:	4603      	mov	r3, r0
  4022e2:	085b      	lsrs	r3, r3, #1
		((CONFIG_SYSCLK_PRES == SYSCLK_PRES_3) ? 3 :
			(1 << (CONFIG_SYSCLK_PRES >> PMC_MCKR_PRES_Pos)));
}
  4022e4:	4618      	mov	r0, r3
  4022e6:	bd80      	pop	{r7, pc}
  4022e8:	004022bd 	.word	0x004022bd

004022ec <sysclk_get_peripheral_hz>:
 * \brief Retrieves the current rate in Hz of the peripheral clocks.
 *
 * \return Frequency of the peripheral clocks, in Hz.
 */
static inline uint32_t sysclk_get_peripheral_hz(void)
{
  4022ec:	b580      	push	{r7, lr}
  4022ee:	af00      	add	r7, sp, #0
	/* CONFIG_SYSCLK_PRES is the register value for setting the expected */
	/* prescaler, not an immediate value. */
	return sysclk_get_main_hz() /
  4022f0:	4b02      	ldr	r3, [pc, #8]	; (4022fc <sysclk_get_peripheral_hz+0x10>)
  4022f2:	4798      	blx	r3
  4022f4:	4603      	mov	r3, r0
  4022f6:	085b      	lsrs	r3, r3, #1
		((CONFIG_SYSCLK_PRES == SYSCLK_PRES_3) ? 3 :
			(1 << (CONFIG_SYSCLK_PRES >> PMC_MCKR_PRES_Pos)));
}
  4022f8:	4618      	mov	r0, r3
  4022fa:	bd80      	pop	{r7, pc}
  4022fc:	004022bd 	.word	0x004022bd

00402300 <sysclk_enable_peripheral_clock>:
 * \brief Enable a peripheral's clock.
 *
 * \param ul_id Id (number) of the peripheral clock.
 */
static inline void sysclk_enable_peripheral_clock(uint32_t ul_id)
{
  402300:	b580      	push	{r7, lr}
  402302:	b082      	sub	sp, #8
  402304:	af00      	add	r7, sp, #0
  402306:	6078      	str	r0, [r7, #4]
	pmc_enable_periph_clk(ul_id);
  402308:	6878      	ldr	r0, [r7, #4]
  40230a:	4b03      	ldr	r3, [pc, #12]	; (402318 <sysclk_enable_peripheral_clock+0x18>)
  40230c:	4798      	blx	r3
}
  40230e:	bf00      	nop
  402310:	3708      	adds	r7, #8
  402312:	46bd      	mov	sp, r7
  402314:	bd80      	pop	{r7, pc}
  402316:	bf00      	nop
  402318:	00401dc1 	.word	0x00401dc1

0040231c <main>:
void SendRespPkt(uint8_t *pkt, uint8_t len);
void ReadAnalogIn(void);
void ReadDigitalIn(void);

int main (void)
{
  40231c:	e92d 48f0 	stmdb	sp!, {r4, r5, r6, r7, fp, lr}
  402320:	b08e      	sub	sp, #56	; 0x38
  402322:	af02      	add	r7, sp, #8
	/* RS485 Tx buffer */
	uint8_t respBuff[RS485_BUFFER_SIZE], respLen = 0;
  402324:	2300      	movs	r3, #0
  402326:	71fb      	strb	r3, [r7, #7]
	uint8_t commState = 0, recvdBytes = 0, prevRecvdBytes;
  402328:	2300      	movs	r3, #0
  40232a:	f887 302f 	strb.w	r3, [r7, #47]	; 0x2f
  40232e:	2300      	movs	r3, #0
  402330:	f887 302d 	strb.w	r3, [r7, #45]	; 0x2d
	/* Init Mbus writeFunc() ptr */
	writeFunc = WriteMbusRegs;
  402334:	4b4a      	ldr	r3, [pc, #296]	; (402460 <main+0x144>)
  402336:	4a4b      	ldr	r2, [pc, #300]	; (402464 <main+0x148>)
  402338:	601a      	str	r2, [r3, #0]

	anaState = anaRead0;
  40233a:	4b4b      	ldr	r3, [pc, #300]	; (402468 <main+0x14c>)
  40233c:	2200      	movs	r2, #0
  40233e:	701a      	strb	r2, [r3, #0]
	
	/* Insert system clock initialization code here (sysclk_init()). */
	sysclk_init();
  402340:	4b4a      	ldr	r3, [pc, #296]	; (40246c <main+0x150>)
  402342:	4798      	blx	r3
	/* Initialize all peripheral pins */
	board_init();	
  402344:	4b4a      	ldr	r3, [pc, #296]	; (402470 <main+0x154>)
  402346:	4798      	blx	r3
	delay_init(sysclk_get_cpu_hz());
	
	InitPeripherals();
  402348:	4b4a      	ldr	r3, [pc, #296]	; (402474 <main+0x158>)
  40234a:	4798      	blx	r3
	
	//LED Toggle
	//gpio_toggle_pin(PIO_PC23_IDX);
	
	/* Start Receiving Data */
	usart_disable_tx(RS485_USART);
  40234c:	484a      	ldr	r0, [pc, #296]	; (402478 <main+0x15c>)
  40234e:	4b4b      	ldr	r3, [pc, #300]	; (40247c <main+0x160>)
  402350:	4798      	blx	r3
	usart_enable_rx(RS485_USART);
  402352:	4849      	ldr	r0, [pc, #292]	; (402478 <main+0x15c>)
  402354:	4b4a      	ldr	r3, [pc, #296]	; (402480 <main+0x164>)
  402356:	4798      	blx	r3
	Rs485PdcStartRx((uint32_t)rs485RxBuffer,RS485_BUFFER_SIZE);
  402358:	4b4a      	ldr	r3, [pc, #296]	; (402484 <main+0x168>)
  40235a:	2123      	movs	r1, #35	; 0x23
  40235c:	4618      	mov	r0, r3
  40235e:	4b4a      	ldr	r3, [pc, #296]	; (402488 <main+0x16c>)
  402360:	4798      	blx	r3
	
	while(1)	
	{
		recvdBytes = Rs485PdcGetRxBytes();
  402362:	4b4a      	ldr	r3, [pc, #296]	; (40248c <main+0x170>)
  402364:	4798      	blx	r3
  402366:	4603      	mov	r3, r0
  402368:	f887 302d 	strb.w	r3, [r7, #45]	; 0x2d
		/* Check if data received on 485 */
        switch(commState)
  40236c:	f897 302f 	ldrb.w	r3, [r7, #47]	; 0x2f
  402370:	2b00      	cmp	r3, #0
  402372:	d002      	beq.n	40237a <main+0x5e>
  402374:	2b01      	cmp	r3, #1
  402376:	d00c      	beq.n	402392 <main+0x76>
  402378:	e047      	b.n	40240a <main+0xee>
        {
            case 0:
                if(recvdBytes!=0)
  40237a:	f897 302d 	ldrb.w	r3, [r7, #45]	; 0x2d
  40237e:	2b00      	cmp	r3, #0
  402380:	d042      	beq.n	402408 <main+0xec>
                {
                    commState = 1;
  402382:	2301      	movs	r3, #1
  402384:	f887 302f 	strb.w	r3, [r7, #47]	; 0x2f
                    prevRecvdBytes = recvdBytes;
  402388:	f897 302d 	ldrb.w	r3, [r7, #45]	; 0x2d
  40238c:	f887 302e 	strb.w	r3, [r7, #46]	; 0x2e
                }
                break;
  402390:	e03a      	b.n	402408 <main+0xec>
            case 1:
                if(prevRecvdBytes != recvdBytes)
  402392:	f897 202e 	ldrb.w	r2, [r7, #46]	; 0x2e
  402396:	f897 302d 	ldrb.w	r3, [r7, #45]	; 0x2d
  40239a:	429a      	cmp	r2, r3
  40239c:	d004      	beq.n	4023a8 <main+0x8c>
                {
                    prevRecvdBytes = recvdBytes;
  40239e:	f897 302d 	ldrb.w	r3, [r7, #45]	; 0x2d
  4023a2:	f887 302e 	strb.w	r3, [r7, #46]	; 0x2e
					pdc_enable_transfer(rs485PdcBase, PERIPH_PTCR_RXTEN);
                    Rs485PdcStartRx((uint32_t)rs485RxBuffer,RS485_BUFFER_SIZE);

                    commState = 0;
                }
                break;
  4023a6:	e030      	b.n	40240a <main+0xee>
                    prevRecvdBytes = recvdBytes;
                }
                else
                {
                    /* 1 Modbus Pkt received. Process it. */
					usart_disable_rx(RS485_USART);
  4023a8:	4833      	ldr	r0, [pc, #204]	; (402478 <main+0x15c>)
  4023aa:	4b39      	ldr	r3, [pc, #228]	; (402490 <main+0x174>)
  4023ac:	4798      	blx	r3
                    pdc_disable_transfer(rs485PdcBase, PERIPH_PTCR_RXTEN);
  4023ae:	4b39      	ldr	r3, [pc, #228]	; (402494 <main+0x178>)
  4023b0:	681b      	ldr	r3, [r3, #0]
  4023b2:	2101      	movs	r1, #1
  4023b4:	4618      	mov	r0, r3
  4023b6:	4b38      	ldr	r3, [pc, #224]	; (402498 <main+0x17c>)
  4023b8:	4798      	blx	r3

					/* Parse Received MBUS Pkt, update actual variables */
					ParseMbusPkt(MBUS_SLA, rs485RxBuffer, recvdBytes, respBuff, &respLen);    
  4023ba:	f107 0108 	add.w	r1, r7, #8
  4023be:	f897 202d 	ldrb.w	r2, [r7, #45]	; 0x2d
  4023c2:	1dfb      	adds	r3, r7, #7
  4023c4:	9300      	str	r3, [sp, #0]
  4023c6:	460b      	mov	r3, r1
  4023c8:	492e      	ldr	r1, [pc, #184]	; (402484 <main+0x168>)
  4023ca:	2001      	movs	r0, #1
  4023cc:	4c33      	ldr	r4, [pc, #204]	; (40249c <main+0x180>)
  4023ce:	47a0      	blx	r4
                        
                    /* Generate MBus Resp */
                    if(respLen)
  4023d0:	79fb      	ldrb	r3, [r7, #7]
  4023d2:	2b00      	cmp	r3, #0
  4023d4:	d006      	beq.n	4023e4 <main+0xc8>
                    {
						SendRespPkt(respBuff, respLen);
  4023d6:	79fa      	ldrb	r2, [r7, #7]
  4023d8:	f107 0308 	add.w	r3, r7, #8
  4023dc:	4611      	mov	r1, r2
  4023de:	4618      	mov	r0, r3
  4023e0:	4b2f      	ldr	r3, [pc, #188]	; (4024a0 <main+0x184>)
  4023e2:	4798      	blx	r3
                    }
                        
					usart_enable_rx(RS485_USART);
  4023e4:	4824      	ldr	r0, [pc, #144]	; (402478 <main+0x15c>)
  4023e6:	4b26      	ldr	r3, [pc, #152]	; (402480 <main+0x164>)
  4023e8:	4798      	blx	r3
					pdc_enable_transfer(rs485PdcBase, PERIPH_PTCR_RXTEN);
  4023ea:	4b2a      	ldr	r3, [pc, #168]	; (402494 <main+0x178>)
  4023ec:	681b      	ldr	r3, [r3, #0]
  4023ee:	2101      	movs	r1, #1
  4023f0:	4618      	mov	r0, r3
  4023f2:	4b2c      	ldr	r3, [pc, #176]	; (4024a4 <main+0x188>)
  4023f4:	4798      	blx	r3
                    Rs485PdcStartRx((uint32_t)rs485RxBuffer,RS485_BUFFER_SIZE);
  4023f6:	4b23      	ldr	r3, [pc, #140]	; (402484 <main+0x168>)
  4023f8:	2123      	movs	r1, #35	; 0x23
  4023fa:	4618      	mov	r0, r3
  4023fc:	4b22      	ldr	r3, [pc, #136]	; (402488 <main+0x16c>)
  4023fe:	4798      	blx	r3

                    commState = 0;
  402400:	2300      	movs	r3, #0
  402402:	f887 302f 	strb.w	r3, [r7, #47]	; 0x2f
                }
                break;
  402406:	e000      	b.n	40240a <main+0xee>
                if(recvdBytes!=0)
                {
                    commState = 1;
                    prevRecvdBytes = recvdBytes;
                }
                break;
  402408:	bf00      	nop
                }
                break;
        }

		/* Update digital input regs */
		ReadDigitalIn();
  40240a:	4b27      	ldr	r3, [pc, #156]	; (4024a8 <main+0x18c>)
  40240c:	4798      	blx	r3
		/* Update analog input regs */
		ReadAnalogIn();
  40240e:	4b27      	ldr	r3, [pc, #156]	; (4024ac <main+0x190>)
  402410:	4798      	blx	r3
		delay_ms(5);
  402412:	4b27      	ldr	r3, [pc, #156]	; (4024b0 <main+0x194>)
  402414:	4798      	blx	r3
  402416:	4603      	mov	r3, r0
  402418:	4619      	mov	r1, r3
  40241a:	f04f 0200 	mov.w	r2, #0
  40241e:	460b      	mov	r3, r1
  402420:	4614      	mov	r4, r2
  402422:	00a6      	lsls	r6, r4, #2
  402424:	ea46 7693 	orr.w	r6, r6, r3, lsr #30
  402428:	009d      	lsls	r5, r3, #2
  40242a:	462b      	mov	r3, r5
  40242c:	4634      	mov	r4, r6
  40242e:	185b      	adds	r3, r3, r1
  402430:	eb44 0402 	adc.w	r4, r4, r2
  402434:	f243 61af 	movw	r1, #13999	; 0x36af
  402438:	f04f 0200 	mov.w	r2, #0
  40243c:	eb13 0b01 	adds.w	fp, r3, r1
  402440:	eb44 0c02 	adc.w	ip, r4, r2
  402444:	4658      	mov	r0, fp
  402446:	4661      	mov	r1, ip
  402448:	4c1a      	ldr	r4, [pc, #104]	; (4024b4 <main+0x198>)
  40244a:	f243 62b0 	movw	r2, #14000	; 0x36b0
  40244e:	f04f 0300 	mov.w	r3, #0
  402452:	47a0      	blx	r4
  402454:	4603      	mov	r3, r0
  402456:	460c      	mov	r4, r1
  402458:	4618      	mov	r0, r3
  40245a:	4b17      	ldr	r3, [pc, #92]	; (4024b8 <main+0x19c>)
  40245c:	4798      	blx	r3
	}
  40245e:	e780      	b.n	402362 <main+0x46>
  402460:	200004e8 	.word	0x200004e8
  402464:	00402531 	.word	0x00402531
  402468:	20000529 	.word	0x20000529
  40246c:	00401429 	.word	0x00401429
  402470:	00401e75 	.word	0x00401e75
  402474:	004024bd 	.word	0x004024bd
  402478:	40028000 	.word	0x40028000
  40247c:	004006c9 	.word	0x004006c9
  402480:	004006f9 	.word	0x004006f9
  402484:	200004fc 	.word	0x200004fc
  402488:	00400fad 	.word	0x00400fad
  40248c:	00400fe9 	.word	0x00400fe9
  402490:	00400711 	.word	0x00400711
  402494:	200004ec 	.word	0x200004ec
  402498:	00401541 	.word	0x00401541
  40249c:	00400831 	.word	0x00400831
  4024a0:	004025a9 	.word	0x004025a9
  4024a4:	00401521 	.word	0x00401521
  4024a8:	0040282d 	.word	0x0040282d
  4024ac:	004025f9 	.word	0x004025f9
  4024b0:	004022d9 	.word	0x004022d9
  4024b4:	00402f01 	.word	0x00402f01
  4024b8:	20000001 	.word	0x20000001

004024bc <InitPeripherals>:
}

void InitPeripherals(void)
{
  4024bc:	b580      	push	{r7, lr}
  4024be:	af00      	add	r7, sp, #0
	/* Init RS485 port with PDC support */
	InitRs485Pdc();
  4024c0:	4b04      	ldr	r3, [pc, #16]	; (4024d4 <InitPeripherals+0x18>)
  4024c2:	4798      	blx	r3
	
	/* Init TWI */
	InitTWI();
  4024c4:	4b04      	ldr	r3, [pc, #16]	; (4024d8 <InitPeripherals+0x1c>)
  4024c6:	4798      	blx	r3
	/* Init I/O Expander */

	/* Read Config from EEPROM */

	/* Set AMUX sel pin to low */
	gpio_set_pin_low(PIN_AMUXSEL2_IDX);
  4024c8:	2022      	movs	r0, #34	; 0x22
  4024ca:	4b04      	ldr	r3, [pc, #16]	; (4024dc <InitPeripherals+0x20>)
  4024cc:	4798      	blx	r3
}
  4024ce:	bf00      	nop
  4024d0:	bd80      	pop	{r7, pc}
  4024d2:	bf00      	nop
  4024d4:	00400e95 	.word	0x00400e95
  4024d8:	004024e1 	.word	0x004024e1
  4024dc:	00401845 	.word	0x00401845

004024e0 <InitTWI>:

void InitTWI(void)
{
  4024e0:	b580      	push	{r7, lr}
  4024e2:	b084      	sub	sp, #16
  4024e4:	af00      	add	r7, sp, #0
	twi_options_t twiSettings = {
		sysclk_get_peripheral_hz(),
  4024e6:	4b0c      	ldr	r3, [pc, #48]	; (402518 <InitTWI+0x38>)
  4024e8:	4798      	blx	r3
  4024ea:	4603      	mov	r3, r0
	gpio_set_pin_low(PIN_AMUXSEL2_IDX);
}

void InitTWI(void)
{
	twi_options_t twiSettings = {
  4024ec:	607b      	str	r3, [r7, #4]
  4024ee:	4b0b      	ldr	r3, [pc, #44]	; (40251c <InitTWI+0x3c>)
  4024f0:	60bb      	str	r3, [r7, #8]
  4024f2:	2300      	movs	r3, #0
  4024f4:	733b      	strb	r3, [r7, #12]
  4024f6:	2300      	movs	r3, #0
  4024f8:	737b      	strb	r3, [r7, #13]
		400000,
		0,
		0
	};
	/* Enable the peripheral clock in the PMC. */
	sysclk_enable_peripheral_clock(BOARD_TWI_ID);
  4024fa:	2013      	movs	r0, #19
  4024fc:	4b08      	ldr	r3, [pc, #32]	; (402520 <InitTWI+0x40>)
  4024fe:	4798      	blx	r3

	/* Enable TWI master mode */
	twi_enable_master_mode(BOARD_TWI);
  402500:	4808      	ldr	r0, [pc, #32]	; (402524 <InitTWI+0x44>)
  402502:	4b09      	ldr	r3, [pc, #36]	; (402528 <InitTWI+0x48>)
  402504:	4798      	blx	r3

	/* Initialize TWI peripheral */
	twi_master_init(BOARD_TWI, &twiSettings);
  402506:	1d3b      	adds	r3, r7, #4
  402508:	4619      	mov	r1, r3
  40250a:	4806      	ldr	r0, [pc, #24]	; (402524 <InitTWI+0x44>)
  40250c:	4b07      	ldr	r3, [pc, #28]	; (40252c <InitTWI+0x4c>)
  40250e:	4798      	blx	r3
}
  402510:	bf00      	nop
  402512:	3710      	adds	r7, #16
  402514:	46bd      	mov	sp, r7
  402516:	bd80      	pop	{r7, pc}
  402518:	004022ed 	.word	0x004022ed
  40251c:	00061a80 	.word	0x00061a80
  402520:	00402301 	.word	0x00402301
  402524:	40018000 	.word	0x40018000
  402528:	00400129 	.word	0x00400129
  40252c:	0040014d 	.word	0x0040014d

00402530 <WriteMbusRegs>:

void WriteMbusRegs(uint16_t *mbusBuff, uint8_t regAddr, uint8_t len)
{
  402530:	b580      	push	{r7, lr}
  402532:	b082      	sub	sp, #8
  402534:	af00      	add	r7, sp, #0
  402536:	6078      	str	r0, [r7, #4]
  402538:	460b      	mov	r3, r1
  40253a:	70fb      	strb	r3, [r7, #3]
  40253c:	4613      	mov	r3, r2
  40253e:	70bb      	strb	r3, [r7, #2]
	uint16_t *ptr;
	
	while(len)
  402540:	e024      	b.n	40258c <WriteMbusRegs+0x5c>
	{
		switch(regAddr)
  402542:	78fb      	ldrb	r3, [r7, #3]
  402544:	2b0a      	cmp	r3, #10
  402546:	d000      	beq.n	40254a <WriteMbusRegs+0x1a>
				{
					gpio_set_pin_low(PIN_RLY2_IDX);
				}
				break;
			default:
				break;
  402548:	e01a      	b.n	402580 <WriteMbusRegs+0x50>
	{
		switch(regAddr)
		{
			case MBUS_REG_DO1:
				//Write digital output on pins
				if(BIT_IS_SET(mBusRegs[MBUS_REG_DO1], 0))
  40254a:	4b14      	ldr	r3, [pc, #80]	; (40259c <WriteMbusRegs+0x6c>)
  40254c:	8a9b      	ldrh	r3, [r3, #20]
  40254e:	f003 0301 	and.w	r3, r3, #1
  402552:	2b00      	cmp	r3, #0
  402554:	d003      	beq.n	40255e <WriteMbusRegs+0x2e>
				{
					gpio_set_pin_high(PIN_RLY1_IDX);
  402556:	2017      	movs	r0, #23
  402558:	4b11      	ldr	r3, [pc, #68]	; (4025a0 <WriteMbusRegs+0x70>)
  40255a:	4798      	blx	r3
  40255c:	e002      	b.n	402564 <WriteMbusRegs+0x34>
				}
				else
				{
					gpio_set_pin_low(PIN_RLY1_IDX);
  40255e:	2017      	movs	r0, #23
  402560:	4b10      	ldr	r3, [pc, #64]	; (4025a4 <WriteMbusRegs+0x74>)
  402562:	4798      	blx	r3
				}
				if(BIT_IS_SET(mBusRegs[MBUS_REG_DO1], 1))
  402564:	4b0d      	ldr	r3, [pc, #52]	; (40259c <WriteMbusRegs+0x6c>)
  402566:	8a9b      	ldrh	r3, [r3, #20]
  402568:	f003 0302 	and.w	r3, r3, #2
  40256c:	2b00      	cmp	r3, #0
  40256e:	d003      	beq.n	402578 <WriteMbusRegs+0x48>
				{
					gpio_set_pin_high(PIN_RLY2_IDX);
  402570:	2014      	movs	r0, #20
  402572:	4b0b      	ldr	r3, [pc, #44]	; (4025a0 <WriteMbusRegs+0x70>)
  402574:	4798      	blx	r3
				}
				else
				{
					gpio_set_pin_low(PIN_RLY2_IDX);
				}
				break;
  402576:	e002      	b.n	40257e <WriteMbusRegs+0x4e>
				{
					gpio_set_pin_high(PIN_RLY2_IDX);
				}
				else
				{
					gpio_set_pin_low(PIN_RLY2_IDX);
  402578:	2014      	movs	r0, #20
  40257a:	4b0a      	ldr	r3, [pc, #40]	; (4025a4 <WriteMbusRegs+0x74>)
  40257c:	4798      	blx	r3
				}
				break;
  40257e:	bf00      	nop
			default:
				break;
		}
		regAddr++;
  402580:	78fb      	ldrb	r3, [r7, #3]
  402582:	3301      	adds	r3, #1
  402584:	70fb      	strb	r3, [r7, #3]
		len--;
  402586:	78bb      	ldrb	r3, [r7, #2]
  402588:	3b01      	subs	r3, #1
  40258a:	70bb      	strb	r3, [r7, #2]

void WriteMbusRegs(uint16_t *mbusBuff, uint8_t regAddr, uint8_t len)
{
	uint16_t *ptr;
	
	while(len)
  40258c:	78bb      	ldrb	r3, [r7, #2]
  40258e:	2b00      	cmp	r3, #0
  402590:	d1d7      	bne.n	402542 <WriteMbusRegs+0x12>
				break;
		}
		regAddr++;
		len--;
	}
}
  402592:	bf00      	nop
  402594:	3708      	adds	r7, #8
  402596:	46bd      	mov	sp, r7
  402598:	bd80      	pop	{r7, pc}
  40259a:	bf00      	nop
  40259c:	20000458 	.word	0x20000458
  4025a0:	00401815 	.word	0x00401815
  4025a4:	00401845 	.word	0x00401845

004025a8 <SendRespPkt>:

void SendRespPkt(uint8_t *pkt, uint8_t len)
{
  4025a8:	b580      	push	{r7, lr}
  4025aa:	b082      	sub	sp, #8
  4025ac:	af00      	add	r7, sp, #0
  4025ae:	6078      	str	r0, [r7, #4]
  4025b0:	460b      	mov	r3, r1
  4025b2:	70fb      	strb	r3, [r7, #3]
	usart_enable_tx(RS485_USART);
  4025b4:	480b      	ldr	r0, [pc, #44]	; (4025e4 <SendRespPkt+0x3c>)
  4025b6:	4b0c      	ldr	r3, [pc, #48]	; (4025e8 <SendRespPkt+0x40>)
  4025b8:	4798      	blx	r3
	/* 3.5 Char Wait Time */
	
	/* Start PDC Transfer */
	Rs485PdcStartTx((uint32_t)pkt, len);
  4025ba:	687b      	ldr	r3, [r7, #4]
  4025bc:	78fa      	ldrb	r2, [r7, #3]
  4025be:	b292      	uxth	r2, r2
  4025c0:	4611      	mov	r1, r2
  4025c2:	4618      	mov	r0, r3
  4025c4:	4b09      	ldr	r3, [pc, #36]	; (4025ec <SendRespPkt+0x44>)
  4025c6:	4798      	blx	r3

	/* Wait till tx completes */
	while(!Rs485PdcGetTxStatus());
  4025c8:	bf00      	nop
  4025ca:	4b09      	ldr	r3, [pc, #36]	; (4025f0 <SendRespPkt+0x48>)
  4025cc:	4798      	blx	r3
  4025ce:	4603      	mov	r3, r0
  4025d0:	2b00      	cmp	r3, #0
  4025d2:	d0fa      	beq.n	4025ca <SendRespPkt+0x22>

	/* 3.5 Char Wait Time */

	usart_disable_tx(RS485_USART);
  4025d4:	4803      	ldr	r0, [pc, #12]	; (4025e4 <SendRespPkt+0x3c>)
  4025d6:	4b07      	ldr	r3, [pc, #28]	; (4025f4 <SendRespPkt+0x4c>)
  4025d8:	4798      	blx	r3
}
  4025da:	bf00      	nop
  4025dc:	3708      	adds	r7, #8
  4025de:	46bd      	mov	sp, r7
  4025e0:	bd80      	pop	{r7, pc}
  4025e2:	bf00      	nop
  4025e4:	40028000 	.word	0x40028000
  4025e8:	004006b1 	.word	0x004006b1
  4025ec:	00400f71 	.word	0x00400f71
  4025f0:	00401021 	.word	0x00401021
  4025f4:	004006c9 	.word	0x004006c9

004025f8 <ReadAnalogIn>:

void ReadAnalogIn(void)
{
  4025f8:	e92d 4890 	stmdb	sp!, {r4, r7, fp, lr}
  4025fc:	b082      	sub	sp, #8
  4025fe:	af00      	add	r7, sp, #0
	/* Read 0-10V, 4-20mA */
	float anaV = 0;
  402600:	f04f 0300 	mov.w	r3, #0
  402604:	607b      	str	r3, [r7, #4]
	uint16_t anaVal = 0;
  402606:	2300      	movs	r3, #0
  402608:	807b      	strh	r3, [r7, #2]

	static uint8_t recvdData[3];
	
	switch(anaState)
  40260a:	4b7d      	ldr	r3, [pc, #500]	; (402800 <ReadAnalogIn+0x208>)
  40260c:	781b      	ldrb	r3, [r3, #0]
  40260e:	2b04      	cmp	r3, #4
  402610:	f200 80f0 	bhi.w	4027f4 <ReadAnalogIn+0x1fc>
  402614:	a201      	add	r2, pc, #4	; (adr r2, 40261c <ReadAnalogIn+0x24>)
  402616:	f852 f023 	ldr.w	pc, [r2, r3, lsl #2]
  40261a:	bf00      	nop
  40261c:	00402631 	.word	0x00402631
  402620:	0040269b 	.word	0x0040269b
  402624:	00402705 	.word	0x00402705
  402628:	0040276f 	.word	0x0040276f
  40262c:	004027d9 	.word	0x004027d9
	{
		case anaRead0:
			/* Store recvd data */
			anaVal = (((uint16_t)recvdData[0])<<8)|(recvdData[1]);
  402630:	4b74      	ldr	r3, [pc, #464]	; (402804 <ReadAnalogIn+0x20c>)
  402632:	781b      	ldrb	r3, [r3, #0]
  402634:	021b      	lsls	r3, r3, #8
  402636:	b21a      	sxth	r2, r3
  402638:	4b72      	ldr	r3, [pc, #456]	; (402804 <ReadAnalogIn+0x20c>)
  40263a:	785b      	ldrb	r3, [r3, #1]
  40263c:	b21b      	sxth	r3, r3
  40263e:	4313      	orrs	r3, r2
  402640:	b21b      	sxth	r3, r3
  402642:	807b      	strh	r3, [r7, #2]
			/* Set Mux Select lines to channel 0 */
			gpio_set_pin_low(PIN_AMUXSEL0_IDX);
  402644:	2020      	movs	r0, #32
  402646:	4b70      	ldr	r3, [pc, #448]	; (402808 <ReadAnalogIn+0x210>)
  402648:	4798      	blx	r3
			gpio_set_pin_low(PIN_AMUXSEL1_IDX);
  40264a:	2021      	movs	r0, #33	; 0x21
  40264c:	4b6e      	ldr	r3, [pc, #440]	; (402808 <ReadAnalogIn+0x210>)
  40264e:	4798      	blx	r3
			delay_ms(1);
  402650:	4b6e      	ldr	r3, [pc, #440]	; (40280c <ReadAnalogIn+0x214>)
  402652:	4798      	blx	r3
  402654:	4603      	mov	r3, r0
  402656:	f04f 0400 	mov.w	r4, #0
  40265a:	f243 61af 	movw	r1, #13999	; 0x36af
  40265e:	f04f 0200 	mov.w	r2, #0
  402662:	eb13 0b01 	adds.w	fp, r3, r1
  402666:	eb44 0c02 	adc.w	ip, r4, r2
  40266a:	4658      	mov	r0, fp
  40266c:	4661      	mov	r1, ip
  40266e:	4c68      	ldr	r4, [pc, #416]	; (402810 <ReadAnalogIn+0x218>)
  402670:	f243 62b0 	movw	r2, #14000	; 0x36b0
  402674:	f04f 0300 	mov.w	r3, #0
  402678:	47a0      	blx	r4
  40267a:	4603      	mov	r3, r0
  40267c:	460c      	mov	r4, r1
  40267e:	4618      	mov	r0, r3
  402680:	4b64      	ldr	r3, [pc, #400]	; (402814 <ReadAnalogIn+0x21c>)
  402682:	4798      	blx	r3
			anaNextState = anaRead1;
  402684:	4b64      	ldr	r3, [pc, #400]	; (402818 <ReadAnalogIn+0x220>)
  402686:	2201      	movs	r2, #1
  402688:	701a      	strb	r2, [r3, #0]
			anaState = anaBusy;
  40268a:	4b5d      	ldr	r3, [pc, #372]	; (402800 <ReadAnalogIn+0x208>)
  40268c:	2204      	movs	r2, #4
  40268e:	701a      	strb	r2, [r3, #0]
			/* Initiate ADC reading */
			WriteMCP3425(BOARD_TWI,(1<<MCP_BIT_CONF_RDY)|(1<<MCP_BIT_CONF_S1));
  402690:	2188      	movs	r1, #136	; 0x88
  402692:	4862      	ldr	r0, [pc, #392]	; (40281c <ReadAnalogIn+0x224>)
  402694:	4b62      	ldr	r3, [pc, #392]	; (402820 <ReadAnalogIn+0x228>)
  402696:	4798      	blx	r3
			break;
  402698:	e0ac      	b.n	4027f4 <ReadAnalogIn+0x1fc>
		case anaRead1:
			/* Store recvd data */
			anaVal = (((uint16_t)recvdData[0])<<8)|(recvdData[1]);
  40269a:	4b5a      	ldr	r3, [pc, #360]	; (402804 <ReadAnalogIn+0x20c>)
  40269c:	781b      	ldrb	r3, [r3, #0]
  40269e:	021b      	lsls	r3, r3, #8
  4026a0:	b21a      	sxth	r2, r3
  4026a2:	4b58      	ldr	r3, [pc, #352]	; (402804 <ReadAnalogIn+0x20c>)
  4026a4:	785b      	ldrb	r3, [r3, #1]
  4026a6:	b21b      	sxth	r3, r3
  4026a8:	4313      	orrs	r3, r2
  4026aa:	b21b      	sxth	r3, r3
  4026ac:	807b      	strh	r3, [r7, #2]
			/* Set Mux Select lines to channel 1 */
			gpio_set_pin_high(PIN_AMUXSEL0_IDX);
  4026ae:	2020      	movs	r0, #32
  4026b0:	4b5c      	ldr	r3, [pc, #368]	; (402824 <ReadAnalogIn+0x22c>)
  4026b2:	4798      	blx	r3
			gpio_set_pin_low(PIN_AMUXSEL1_IDX);
  4026b4:	2021      	movs	r0, #33	; 0x21
  4026b6:	4b54      	ldr	r3, [pc, #336]	; (402808 <ReadAnalogIn+0x210>)
  4026b8:	4798      	blx	r3
			delay_ms(1);
  4026ba:	4b54      	ldr	r3, [pc, #336]	; (40280c <ReadAnalogIn+0x214>)
  4026bc:	4798      	blx	r3
  4026be:	4603      	mov	r3, r0
  4026c0:	f04f 0400 	mov.w	r4, #0
  4026c4:	f243 61af 	movw	r1, #13999	; 0x36af
  4026c8:	f04f 0200 	mov.w	r2, #0
  4026cc:	eb13 0b01 	adds.w	fp, r3, r1
  4026d0:	eb44 0c02 	adc.w	ip, r4, r2
  4026d4:	4658      	mov	r0, fp
  4026d6:	4661      	mov	r1, ip
  4026d8:	4c4d      	ldr	r4, [pc, #308]	; (402810 <ReadAnalogIn+0x218>)
  4026da:	f243 62b0 	movw	r2, #14000	; 0x36b0
  4026de:	f04f 0300 	mov.w	r3, #0
  4026e2:	47a0      	blx	r4
  4026e4:	4603      	mov	r3, r0
  4026e6:	460c      	mov	r4, r1
  4026e8:	4618      	mov	r0, r3
  4026ea:	4b4a      	ldr	r3, [pc, #296]	; (402814 <ReadAnalogIn+0x21c>)
  4026ec:	4798      	blx	r3
			anaNextState = anaRead2;
  4026ee:	4b4a      	ldr	r3, [pc, #296]	; (402818 <ReadAnalogIn+0x220>)
  4026f0:	2202      	movs	r2, #2
  4026f2:	701a      	strb	r2, [r3, #0]
			anaState = anaBusy;
  4026f4:	4b42      	ldr	r3, [pc, #264]	; (402800 <ReadAnalogIn+0x208>)
  4026f6:	2204      	movs	r2, #4
  4026f8:	701a      	strb	r2, [r3, #0]
			/* Initiate ADC reading */
			WriteMCP3425(BOARD_TWI,(1<<MCP_BIT_CONF_RDY)|(1<<MCP_BIT_CONF_S1));
  4026fa:	2188      	movs	r1, #136	; 0x88
  4026fc:	4847      	ldr	r0, [pc, #284]	; (40281c <ReadAnalogIn+0x224>)
  4026fe:	4b48      	ldr	r3, [pc, #288]	; (402820 <ReadAnalogIn+0x228>)
  402700:	4798      	blx	r3
			break;
  402702:	e077      	b.n	4027f4 <ReadAnalogIn+0x1fc>
		case anaRead2:
			/* Store recvd data */
			anaVal = (((uint16_t)recvdData[0])<<8)|(recvdData[1]);
  402704:	4b3f      	ldr	r3, [pc, #252]	; (402804 <ReadAnalogIn+0x20c>)
  402706:	781b      	ldrb	r3, [r3, #0]
  402708:	021b      	lsls	r3, r3, #8
  40270a:	b21a      	sxth	r2, r3
  40270c:	4b3d      	ldr	r3, [pc, #244]	; (402804 <ReadAnalogIn+0x20c>)
  40270e:	785b      	ldrb	r3, [r3, #1]
  402710:	b21b      	sxth	r3, r3
  402712:	4313      	orrs	r3, r2
  402714:	b21b      	sxth	r3, r3
  402716:	807b      	strh	r3, [r7, #2]
			/* Set Mux Select lines to channel 2 */
			gpio_set_pin_low(PIN_AMUXSEL0_IDX);
  402718:	2020      	movs	r0, #32
  40271a:	4b3b      	ldr	r3, [pc, #236]	; (402808 <ReadAnalogIn+0x210>)
  40271c:	4798      	blx	r3
			gpio_set_pin_high(PIN_AMUXSEL1_IDX);
  40271e:	2021      	movs	r0, #33	; 0x21
  402720:	4b40      	ldr	r3, [pc, #256]	; (402824 <ReadAnalogIn+0x22c>)
  402722:	4798      	blx	r3
			delay_ms(1);
  402724:	4b39      	ldr	r3, [pc, #228]	; (40280c <ReadAnalogIn+0x214>)
  402726:	4798      	blx	r3
  402728:	4603      	mov	r3, r0
  40272a:	f04f 0400 	mov.w	r4, #0
  40272e:	f243 61af 	movw	r1, #13999	; 0x36af
  402732:	f04f 0200 	mov.w	r2, #0
  402736:	eb13 0b01 	adds.w	fp, r3, r1
  40273a:	eb44 0c02 	adc.w	ip, r4, r2
  40273e:	4658      	mov	r0, fp
  402740:	4661      	mov	r1, ip
  402742:	4c33      	ldr	r4, [pc, #204]	; (402810 <ReadAnalogIn+0x218>)
  402744:	f243 62b0 	movw	r2, #14000	; 0x36b0
  402748:	f04f 0300 	mov.w	r3, #0
  40274c:	47a0      	blx	r4
  40274e:	4603      	mov	r3, r0
  402750:	460c      	mov	r4, r1
  402752:	4618      	mov	r0, r3
  402754:	4b2f      	ldr	r3, [pc, #188]	; (402814 <ReadAnalogIn+0x21c>)
  402756:	4798      	blx	r3
			anaNextState = anaRead3;
  402758:	4b2f      	ldr	r3, [pc, #188]	; (402818 <ReadAnalogIn+0x220>)
  40275a:	2203      	movs	r2, #3
  40275c:	701a      	strb	r2, [r3, #0]
			anaState = anaBusy;
  40275e:	4b28      	ldr	r3, [pc, #160]	; (402800 <ReadAnalogIn+0x208>)
  402760:	2204      	movs	r2, #4
  402762:	701a      	strb	r2, [r3, #0]
			/* Initiate ADC reading */
			WriteMCP3425(BOARD_TWI,(1<<MCP_BIT_CONF_RDY)|(1<<MCP_BIT_CONF_S1));
  402764:	2188      	movs	r1, #136	; 0x88
  402766:	482d      	ldr	r0, [pc, #180]	; (40281c <ReadAnalogIn+0x224>)
  402768:	4b2d      	ldr	r3, [pc, #180]	; (402820 <ReadAnalogIn+0x228>)
  40276a:	4798      	blx	r3
			break;
  40276c:	e042      	b.n	4027f4 <ReadAnalogIn+0x1fc>
		case anaRead3:
			/* Store recvd data */
			anaVal = (((uint16_t)recvdData[0])<<8)|(recvdData[1]);
  40276e:	4b25      	ldr	r3, [pc, #148]	; (402804 <ReadAnalogIn+0x20c>)
  402770:	781b      	ldrb	r3, [r3, #0]
  402772:	021b      	lsls	r3, r3, #8
  402774:	b21a      	sxth	r2, r3
  402776:	4b23      	ldr	r3, [pc, #140]	; (402804 <ReadAnalogIn+0x20c>)
  402778:	785b      	ldrb	r3, [r3, #1]
  40277a:	b21b      	sxth	r3, r3
  40277c:	4313      	orrs	r3, r2
  40277e:	b21b      	sxth	r3, r3
  402780:	807b      	strh	r3, [r7, #2]
			/* Set Mux Select lines to channel 3 */
			gpio_set_pin_high(PIN_AMUXSEL0_IDX);
  402782:	2020      	movs	r0, #32
  402784:	4b27      	ldr	r3, [pc, #156]	; (402824 <ReadAnalogIn+0x22c>)
  402786:	4798      	blx	r3
			gpio_set_pin_high(PIN_AMUXSEL1_IDX);
  402788:	2021      	movs	r0, #33	; 0x21
  40278a:	4b26      	ldr	r3, [pc, #152]	; (402824 <ReadAnalogIn+0x22c>)
  40278c:	4798      	blx	r3
			delay_ms(1);
  40278e:	4b1f      	ldr	r3, [pc, #124]	; (40280c <ReadAnalogIn+0x214>)
  402790:	4798      	blx	r3
  402792:	4603      	mov	r3, r0
  402794:	f04f 0400 	mov.w	r4, #0
  402798:	f243 61af 	movw	r1, #13999	; 0x36af
  40279c:	f04f 0200 	mov.w	r2, #0
  4027a0:	eb13 0b01 	adds.w	fp, r3, r1
  4027a4:	eb44 0c02 	adc.w	ip, r4, r2
  4027a8:	4658      	mov	r0, fp
  4027aa:	4661      	mov	r1, ip
  4027ac:	4c18      	ldr	r4, [pc, #96]	; (402810 <ReadAnalogIn+0x218>)
  4027ae:	f243 62b0 	movw	r2, #14000	; 0x36b0
  4027b2:	f04f 0300 	mov.w	r3, #0
  4027b6:	47a0      	blx	r4
  4027b8:	4603      	mov	r3, r0
  4027ba:	460c      	mov	r4, r1
  4027bc:	4618      	mov	r0, r3
  4027be:	4b15      	ldr	r3, [pc, #84]	; (402814 <ReadAnalogIn+0x21c>)
  4027c0:	4798      	blx	r3
			anaNextState = anaRead0;
  4027c2:	4b15      	ldr	r3, [pc, #84]	; (402818 <ReadAnalogIn+0x220>)
  4027c4:	2200      	movs	r2, #0
  4027c6:	701a      	strb	r2, [r3, #0]
			anaState = anaBusy;
  4027c8:	4b0d      	ldr	r3, [pc, #52]	; (402800 <ReadAnalogIn+0x208>)
  4027ca:	2204      	movs	r2, #4
  4027cc:	701a      	strb	r2, [r3, #0]
			/* Initiate ADC reading */
			WriteMCP3425(BOARD_TWI,(1<<MCP_BIT_CONF_RDY)|(1<<MCP_BIT_CONF_S1));
  4027ce:	2188      	movs	r1, #136	; 0x88
  4027d0:	4812      	ldr	r0, [pc, #72]	; (40281c <ReadAnalogIn+0x224>)
  4027d2:	4b13      	ldr	r3, [pc, #76]	; (402820 <ReadAnalogIn+0x228>)
  4027d4:	4798      	blx	r3
			break;
  4027d6:	e00d      	b.n	4027f4 <ReadAnalogIn+0x1fc>
		case anaBusy:
			ReadMCP3425(BOARD_TWI, recvdData);
  4027d8:	490a      	ldr	r1, [pc, #40]	; (402804 <ReadAnalogIn+0x20c>)
  4027da:	4810      	ldr	r0, [pc, #64]	; (40281c <ReadAnalogIn+0x224>)
  4027dc:	4b12      	ldr	r3, [pc, #72]	; (402828 <ReadAnalogIn+0x230>)
  4027de:	4798      	blx	r3
			if (!BIT_IS_SET(recvdData[2],MCP_BIT_CONF_RDY))
  4027e0:	4b08      	ldr	r3, [pc, #32]	; (402804 <ReadAnalogIn+0x20c>)
  4027e2:	789b      	ldrb	r3, [r3, #2]
  4027e4:	b25b      	sxtb	r3, r3
  4027e6:	2b00      	cmp	r3, #0
  4027e8:	db03      	blt.n	4027f2 <ReadAnalogIn+0x1fa>
			{
				anaState = anaNextState;
  4027ea:	4b0b      	ldr	r3, [pc, #44]	; (402818 <ReadAnalogIn+0x220>)
  4027ec:	781a      	ldrb	r2, [r3, #0]
  4027ee:	4b04      	ldr	r3, [pc, #16]	; (402800 <ReadAnalogIn+0x208>)
  4027f0:	701a      	strb	r2, [r3, #0]
			}
			break;
  4027f2:	bf00      	nop
	}
}
  4027f4:	bf00      	nop
  4027f6:	3708      	adds	r7, #8
  4027f8:	46bd      	mov	sp, r7
  4027fa:	e8bd 8890 	ldmia.w	sp!, {r4, r7, fp, pc}
  4027fe:	bf00      	nop
  402800:	20000529 	.word	0x20000529
  402804:	200004e4 	.word	0x200004e4
  402808:	00401845 	.word	0x00401845
  40280c:	004022d9 	.word	0x004022d9
  402810:	00402f01 	.word	0x00402f01
  402814:	20000001 	.word	0x20000001
  402818:	20000528 	.word	0x20000528
  40281c:	40018000 	.word	0x40018000
  402820:	00400d6d 	.word	0x00400d6d
  402824:	00401815 	.word	0x00401815
  402828:	00400da1 	.word	0x00400da1

0040282c <ReadDigitalIn>:

void ReadDigitalIn(void)
{
  40282c:	b580      	push	{r7, lr}
  40282e:	af00      	add	r7, sp, #0
	static uint8_t i = 0;
	switch(i)
  402830:	4b96      	ldr	r3, [pc, #600]	; (402a8c <ReadDigitalIn+0x260>)
  402832:	781b      	ldrb	r3, [r3, #0]
  402834:	2b07      	cmp	r3, #7
  402836:	f200 8349 	bhi.w	402ecc <ReadDigitalIn+0x6a0>
  40283a:	a201      	add	r2, pc, #4	; (adr r2, 402840 <ReadDigitalIn+0x14>)
  40283c:	f852 f023 	ldr.w	pc, [r2, r3, lsl #2]
  402840:	00402861 	.word	0x00402861
  402844:	00402929 	.word	0x00402929
  402848:	004029f1 	.word	0x004029f1
  40284c:	00402acf 	.word	0x00402acf
  402850:	00402b97 	.word	0x00402b97
  402854:	00402c5f 	.word	0x00402c5f
  402858:	00402d3b 	.word	0x00402d3b
  40285c:	00402e03 	.word	0x00402e03
	{
		case 0:
			if(gpio_pin_is_high(PIN_MUXOUT0_IDX))
  402860:	2019      	movs	r0, #25
  402862:	4b8b      	ldr	r3, [pc, #556]	; (402a90 <ReadDigitalIn+0x264>)
  402864:	4798      	blx	r3
  402866:	4603      	mov	r3, r0
  402868:	2b00      	cmp	r3, #0
  40286a:	d007      	beq.n	40287c <ReadDigitalIn+0x50>
				SBI(mBusRegs[MBUS_REG_DI0],0);
  40286c:	4b89      	ldr	r3, [pc, #548]	; (402a94 <ReadDigitalIn+0x268>)
  40286e:	881b      	ldrh	r3, [r3, #0]
  402870:	f043 0301 	orr.w	r3, r3, #1
  402874:	b29a      	uxth	r2, r3
  402876:	4b87      	ldr	r3, [pc, #540]	; (402a94 <ReadDigitalIn+0x268>)
  402878:	801a      	strh	r2, [r3, #0]
  40287a:	e006      	b.n	40288a <ReadDigitalIn+0x5e>
			else
				CBI(mBusRegs[MBUS_REG_DI0],0);
  40287c:	4b85      	ldr	r3, [pc, #532]	; (402a94 <ReadDigitalIn+0x268>)
  40287e:	881b      	ldrh	r3, [r3, #0]
  402880:	f023 0301 	bic.w	r3, r3, #1
  402884:	b29a      	uxth	r2, r3
  402886:	4b83      	ldr	r3, [pc, #524]	; (402a94 <ReadDigitalIn+0x268>)
  402888:	801a      	strh	r2, [r3, #0]

			if(gpio_pin_is_high(PIN_MUXOUT1_IDX))
  40288a:	201a      	movs	r0, #26
  40288c:	4b80      	ldr	r3, [pc, #512]	; (402a90 <ReadDigitalIn+0x264>)
  40288e:	4798      	blx	r3
  402890:	4603      	mov	r3, r0
  402892:	2b00      	cmp	r3, #0
  402894:	d007      	beq.n	4028a6 <ReadDigitalIn+0x7a>
				SBI(mBusRegs[MBUS_REG_DI0],8);
  402896:	4b7f      	ldr	r3, [pc, #508]	; (402a94 <ReadDigitalIn+0x268>)
  402898:	881b      	ldrh	r3, [r3, #0]
  40289a:	f443 7380 	orr.w	r3, r3, #256	; 0x100
  40289e:	b29a      	uxth	r2, r3
  4028a0:	4b7c      	ldr	r3, [pc, #496]	; (402a94 <ReadDigitalIn+0x268>)
  4028a2:	801a      	strh	r2, [r3, #0]
  4028a4:	e006      	b.n	4028b4 <ReadDigitalIn+0x88>
			else
				CBI(mBusRegs[MBUS_REG_DI0],8);
  4028a6:	4b7b      	ldr	r3, [pc, #492]	; (402a94 <ReadDigitalIn+0x268>)
  4028a8:	881b      	ldrh	r3, [r3, #0]
  4028aa:	f423 7380 	bic.w	r3, r3, #256	; 0x100
  4028ae:	b29a      	uxth	r2, r3
  4028b0:	4b78      	ldr	r3, [pc, #480]	; (402a94 <ReadDigitalIn+0x268>)
  4028b2:	801a      	strh	r2, [r3, #0]
			
			if(gpio_pin_is_high(PIN_MUXOUT2_IDX))
  4028b4:	200c      	movs	r0, #12
  4028b6:	4b76      	ldr	r3, [pc, #472]	; (402a90 <ReadDigitalIn+0x264>)
  4028b8:	4798      	blx	r3
  4028ba:	4603      	mov	r3, r0
  4028bc:	2b00      	cmp	r3, #0
  4028be:	d007      	beq.n	4028d0 <ReadDigitalIn+0xa4>
				SBI(mBusRegs[MBUS_REG_DI1],0);
  4028c0:	4b74      	ldr	r3, [pc, #464]	; (402a94 <ReadDigitalIn+0x268>)
  4028c2:	885b      	ldrh	r3, [r3, #2]
  4028c4:	f043 0301 	orr.w	r3, r3, #1
  4028c8:	b29a      	uxth	r2, r3
  4028ca:	4b72      	ldr	r3, [pc, #456]	; (402a94 <ReadDigitalIn+0x268>)
  4028cc:	805a      	strh	r2, [r3, #2]
  4028ce:	e006      	b.n	4028de <ReadDigitalIn+0xb2>
			else
				CBI(mBusRegs[MBUS_REG_DI1],0);
  4028d0:	4b70      	ldr	r3, [pc, #448]	; (402a94 <ReadDigitalIn+0x268>)
  4028d2:	885b      	ldrh	r3, [r3, #2]
  4028d4:	f023 0301 	bic.w	r3, r3, #1
  4028d8:	b29a      	uxth	r2, r3
  4028da:	4b6e      	ldr	r3, [pc, #440]	; (402a94 <ReadDigitalIn+0x268>)
  4028dc:	805a      	strh	r2, [r3, #2]

			if(gpio_pin_is_high(PIN_MUXOUT3_IDX))
  4028de:	200b      	movs	r0, #11
  4028e0:	4b6b      	ldr	r3, [pc, #428]	; (402a90 <ReadDigitalIn+0x264>)
  4028e2:	4798      	blx	r3
  4028e4:	4603      	mov	r3, r0
  4028e6:	2b00      	cmp	r3, #0
  4028e8:	d007      	beq.n	4028fa <ReadDigitalIn+0xce>
				SBI(mBusRegs[MBUS_REG_DI1],8);
  4028ea:	4b6a      	ldr	r3, [pc, #424]	; (402a94 <ReadDigitalIn+0x268>)
  4028ec:	885b      	ldrh	r3, [r3, #2]
  4028ee:	f443 7380 	orr.w	r3, r3, #256	; 0x100
  4028f2:	b29a      	uxth	r2, r3
  4028f4:	4b67      	ldr	r3, [pc, #412]	; (402a94 <ReadDigitalIn+0x268>)
  4028f6:	805a      	strh	r2, [r3, #2]
  4028f8:	e006      	b.n	402908 <ReadDigitalIn+0xdc>
			else
				CBI(mBusRegs[MBUS_REG_DI1],8);
  4028fa:	4b66      	ldr	r3, [pc, #408]	; (402a94 <ReadDigitalIn+0x268>)
  4028fc:	885b      	ldrh	r3, [r3, #2]
  4028fe:	f423 7380 	bic.w	r3, r3, #256	; 0x100
  402902:	b29a      	uxth	r2, r3
  402904:	4b63      	ldr	r3, [pc, #396]	; (402a94 <ReadDigitalIn+0x268>)
  402906:	805a      	strh	r2, [r3, #2]

			gpio_set_pin_high(PIN_MUXSEL0_IDX);
  402908:	2005      	movs	r0, #5
  40290a:	4b63      	ldr	r3, [pc, #396]	; (402a98 <ReadDigitalIn+0x26c>)
  40290c:	4798      	blx	r3
			gpio_set_pin_low(PIN_MUXSEL1_IDX);
  40290e:	2006      	movs	r0, #6
  402910:	4b62      	ldr	r3, [pc, #392]	; (402a9c <ReadDigitalIn+0x270>)
  402912:	4798      	blx	r3
			gpio_set_pin_low(PIN_MUXSEL2_IDX);
  402914:	2024      	movs	r0, #36	; 0x24
  402916:	4b61      	ldr	r3, [pc, #388]	; (402a9c <ReadDigitalIn+0x270>)
  402918:	4798      	blx	r3
			i++;
  40291a:	4b5c      	ldr	r3, [pc, #368]	; (402a8c <ReadDigitalIn+0x260>)
  40291c:	781b      	ldrb	r3, [r3, #0]
  40291e:	3301      	adds	r3, #1
  402920:	b2da      	uxtb	r2, r3
  402922:	4b5a      	ldr	r3, [pc, #360]	; (402a8c <ReadDigitalIn+0x260>)
  402924:	701a      	strb	r2, [r3, #0]
			break;
  402926:	e2de      	b.n	402ee6 <ReadDigitalIn+0x6ba>
		case 1:
			if(gpio_pin_is_high(PIN_MUXOUT0_IDX))
  402928:	2019      	movs	r0, #25
  40292a:	4b59      	ldr	r3, [pc, #356]	; (402a90 <ReadDigitalIn+0x264>)
  40292c:	4798      	blx	r3
  40292e:	4603      	mov	r3, r0
  402930:	2b00      	cmp	r3, #0
  402932:	d007      	beq.n	402944 <ReadDigitalIn+0x118>
				SBI(mBusRegs[MBUS_REG_DI0],1);
  402934:	4b57      	ldr	r3, [pc, #348]	; (402a94 <ReadDigitalIn+0x268>)
  402936:	881b      	ldrh	r3, [r3, #0]
  402938:	f043 0302 	orr.w	r3, r3, #2
  40293c:	b29a      	uxth	r2, r3
  40293e:	4b55      	ldr	r3, [pc, #340]	; (402a94 <ReadDigitalIn+0x268>)
  402940:	801a      	strh	r2, [r3, #0]
  402942:	e006      	b.n	402952 <ReadDigitalIn+0x126>
			else
				CBI(mBusRegs[MBUS_REG_DI0],1);
  402944:	4b53      	ldr	r3, [pc, #332]	; (402a94 <ReadDigitalIn+0x268>)
  402946:	881b      	ldrh	r3, [r3, #0]
  402948:	f023 0302 	bic.w	r3, r3, #2
  40294c:	b29a      	uxth	r2, r3
  40294e:	4b51      	ldr	r3, [pc, #324]	; (402a94 <ReadDigitalIn+0x268>)
  402950:	801a      	strh	r2, [r3, #0]

			if(gpio_pin_is_high(PIN_MUXOUT1_IDX))
  402952:	201a      	movs	r0, #26
  402954:	4b4e      	ldr	r3, [pc, #312]	; (402a90 <ReadDigitalIn+0x264>)
  402956:	4798      	blx	r3
  402958:	4603      	mov	r3, r0
  40295a:	2b00      	cmp	r3, #0
  40295c:	d007      	beq.n	40296e <ReadDigitalIn+0x142>
				SBI(mBusRegs[MBUS_REG_DI0],9);
  40295e:	4b4d      	ldr	r3, [pc, #308]	; (402a94 <ReadDigitalIn+0x268>)
  402960:	881b      	ldrh	r3, [r3, #0]
  402962:	f443 7300 	orr.w	r3, r3, #512	; 0x200
  402966:	b29a      	uxth	r2, r3
  402968:	4b4a      	ldr	r3, [pc, #296]	; (402a94 <ReadDigitalIn+0x268>)
  40296a:	801a      	strh	r2, [r3, #0]
  40296c:	e006      	b.n	40297c <ReadDigitalIn+0x150>
			else
				CBI(mBusRegs[MBUS_REG_DI0],9);
  40296e:	4b49      	ldr	r3, [pc, #292]	; (402a94 <ReadDigitalIn+0x268>)
  402970:	881b      	ldrh	r3, [r3, #0]
  402972:	f423 7300 	bic.w	r3, r3, #512	; 0x200
  402976:	b29a      	uxth	r2, r3
  402978:	4b46      	ldr	r3, [pc, #280]	; (402a94 <ReadDigitalIn+0x268>)
  40297a:	801a      	strh	r2, [r3, #0]
			
			if(gpio_pin_is_high(PIN_MUXOUT2_IDX))
  40297c:	200c      	movs	r0, #12
  40297e:	4b44      	ldr	r3, [pc, #272]	; (402a90 <ReadDigitalIn+0x264>)
  402980:	4798      	blx	r3
  402982:	4603      	mov	r3, r0
  402984:	2b00      	cmp	r3, #0
  402986:	d007      	beq.n	402998 <ReadDigitalIn+0x16c>
				SBI(mBusRegs[MBUS_REG_DI1],1);
  402988:	4b42      	ldr	r3, [pc, #264]	; (402a94 <ReadDigitalIn+0x268>)
  40298a:	885b      	ldrh	r3, [r3, #2]
  40298c:	f043 0302 	orr.w	r3, r3, #2
  402990:	b29a      	uxth	r2, r3
  402992:	4b40      	ldr	r3, [pc, #256]	; (402a94 <ReadDigitalIn+0x268>)
  402994:	805a      	strh	r2, [r3, #2]
  402996:	e006      	b.n	4029a6 <ReadDigitalIn+0x17a>
			else
				CBI(mBusRegs[MBUS_REG_DI1],1);
  402998:	4b3e      	ldr	r3, [pc, #248]	; (402a94 <ReadDigitalIn+0x268>)
  40299a:	885b      	ldrh	r3, [r3, #2]
  40299c:	f023 0302 	bic.w	r3, r3, #2
  4029a0:	b29a      	uxth	r2, r3
  4029a2:	4b3c      	ldr	r3, [pc, #240]	; (402a94 <ReadDigitalIn+0x268>)
  4029a4:	805a      	strh	r2, [r3, #2]

			if(gpio_pin_is_high(PIN_MUXOUT3_IDX))
  4029a6:	200b      	movs	r0, #11
  4029a8:	4b39      	ldr	r3, [pc, #228]	; (402a90 <ReadDigitalIn+0x264>)
  4029aa:	4798      	blx	r3
  4029ac:	4603      	mov	r3, r0
  4029ae:	2b00      	cmp	r3, #0
  4029b0:	d007      	beq.n	4029c2 <ReadDigitalIn+0x196>
				SBI(mBusRegs[MBUS_REG_DI1],9);
  4029b2:	4b38      	ldr	r3, [pc, #224]	; (402a94 <ReadDigitalIn+0x268>)
  4029b4:	885b      	ldrh	r3, [r3, #2]
  4029b6:	f443 7300 	orr.w	r3, r3, #512	; 0x200
  4029ba:	b29a      	uxth	r2, r3
  4029bc:	4b35      	ldr	r3, [pc, #212]	; (402a94 <ReadDigitalIn+0x268>)
  4029be:	805a      	strh	r2, [r3, #2]
  4029c0:	e006      	b.n	4029d0 <ReadDigitalIn+0x1a4>
			else
				CBI(mBusRegs[MBUS_REG_DI1],9);
  4029c2:	4b34      	ldr	r3, [pc, #208]	; (402a94 <ReadDigitalIn+0x268>)
  4029c4:	885b      	ldrh	r3, [r3, #2]
  4029c6:	f423 7300 	bic.w	r3, r3, #512	; 0x200
  4029ca:	b29a      	uxth	r2, r3
  4029cc:	4b31      	ldr	r3, [pc, #196]	; (402a94 <ReadDigitalIn+0x268>)
  4029ce:	805a      	strh	r2, [r3, #2]

			gpio_set_pin_low(PIN_MUXSEL0_IDX);
  4029d0:	2005      	movs	r0, #5
  4029d2:	4b32      	ldr	r3, [pc, #200]	; (402a9c <ReadDigitalIn+0x270>)
  4029d4:	4798      	blx	r3
			gpio_set_pin_high(PIN_MUXSEL1_IDX);
  4029d6:	2006      	movs	r0, #6
  4029d8:	4b2f      	ldr	r3, [pc, #188]	; (402a98 <ReadDigitalIn+0x26c>)
  4029da:	4798      	blx	r3
			gpio_set_pin_low(PIN_MUXSEL2_IDX);
  4029dc:	2024      	movs	r0, #36	; 0x24
  4029de:	4b2f      	ldr	r3, [pc, #188]	; (402a9c <ReadDigitalIn+0x270>)
  4029e0:	4798      	blx	r3
			i++;
  4029e2:	4b2a      	ldr	r3, [pc, #168]	; (402a8c <ReadDigitalIn+0x260>)
  4029e4:	781b      	ldrb	r3, [r3, #0]
  4029e6:	3301      	adds	r3, #1
  4029e8:	b2da      	uxtb	r2, r3
  4029ea:	4b28      	ldr	r3, [pc, #160]	; (402a8c <ReadDigitalIn+0x260>)
  4029ec:	701a      	strb	r2, [r3, #0]
			break;
  4029ee:	e27a      	b.n	402ee6 <ReadDigitalIn+0x6ba>
		case 2:
			if(gpio_pin_is_high(PIN_MUXOUT0_IDX))
  4029f0:	2019      	movs	r0, #25
  4029f2:	4b27      	ldr	r3, [pc, #156]	; (402a90 <ReadDigitalIn+0x264>)
  4029f4:	4798      	blx	r3
  4029f6:	4603      	mov	r3, r0
  4029f8:	2b00      	cmp	r3, #0
  4029fa:	d007      	beq.n	402a0c <ReadDigitalIn+0x1e0>
				SBI(mBusRegs[MBUS_REG_DI0],2);
  4029fc:	4b25      	ldr	r3, [pc, #148]	; (402a94 <ReadDigitalIn+0x268>)
  4029fe:	881b      	ldrh	r3, [r3, #0]
  402a00:	f043 0304 	orr.w	r3, r3, #4
  402a04:	b29a      	uxth	r2, r3
  402a06:	4b23      	ldr	r3, [pc, #140]	; (402a94 <ReadDigitalIn+0x268>)
  402a08:	801a      	strh	r2, [r3, #0]
  402a0a:	e006      	b.n	402a1a <ReadDigitalIn+0x1ee>
			else
				CBI(mBusRegs[MBUS_REG_DI0],2);
  402a0c:	4b21      	ldr	r3, [pc, #132]	; (402a94 <ReadDigitalIn+0x268>)
  402a0e:	881b      	ldrh	r3, [r3, #0]
  402a10:	f023 0304 	bic.w	r3, r3, #4
  402a14:	b29a      	uxth	r2, r3
  402a16:	4b1f      	ldr	r3, [pc, #124]	; (402a94 <ReadDigitalIn+0x268>)
  402a18:	801a      	strh	r2, [r3, #0]

			if(gpio_pin_is_high(PIN_MUXOUT1_IDX))
  402a1a:	201a      	movs	r0, #26
  402a1c:	4b1c      	ldr	r3, [pc, #112]	; (402a90 <ReadDigitalIn+0x264>)
  402a1e:	4798      	blx	r3
  402a20:	4603      	mov	r3, r0
  402a22:	2b00      	cmp	r3, #0
  402a24:	d007      	beq.n	402a36 <ReadDigitalIn+0x20a>
				SBI(mBusRegs[MBUS_REG_DI0],10);
  402a26:	4b1b      	ldr	r3, [pc, #108]	; (402a94 <ReadDigitalIn+0x268>)
  402a28:	881b      	ldrh	r3, [r3, #0]
  402a2a:	f443 6380 	orr.w	r3, r3, #1024	; 0x400
  402a2e:	b29a      	uxth	r2, r3
  402a30:	4b18      	ldr	r3, [pc, #96]	; (402a94 <ReadDigitalIn+0x268>)
  402a32:	801a      	strh	r2, [r3, #0]
  402a34:	e006      	b.n	402a44 <ReadDigitalIn+0x218>
			else
				CBI(mBusRegs[MBUS_REG_DI0],10);
  402a36:	4b17      	ldr	r3, [pc, #92]	; (402a94 <ReadDigitalIn+0x268>)
  402a38:	881b      	ldrh	r3, [r3, #0]
  402a3a:	f423 6380 	bic.w	r3, r3, #1024	; 0x400
  402a3e:	b29a      	uxth	r2, r3
  402a40:	4b14      	ldr	r3, [pc, #80]	; (402a94 <ReadDigitalIn+0x268>)
  402a42:	801a      	strh	r2, [r3, #0]
			
			if(gpio_pin_is_high(PIN_MUXOUT2_IDX))
  402a44:	200c      	movs	r0, #12
  402a46:	4b12      	ldr	r3, [pc, #72]	; (402a90 <ReadDigitalIn+0x264>)
  402a48:	4798      	blx	r3
  402a4a:	4603      	mov	r3, r0
  402a4c:	2b00      	cmp	r3, #0
  402a4e:	d007      	beq.n	402a60 <ReadDigitalIn+0x234>
				SBI(mBusRegs[MBUS_REG_DI1],2);
  402a50:	4b10      	ldr	r3, [pc, #64]	; (402a94 <ReadDigitalIn+0x268>)
  402a52:	885b      	ldrh	r3, [r3, #2]
  402a54:	f043 0304 	orr.w	r3, r3, #4
  402a58:	b29a      	uxth	r2, r3
  402a5a:	4b0e      	ldr	r3, [pc, #56]	; (402a94 <ReadDigitalIn+0x268>)
  402a5c:	805a      	strh	r2, [r3, #2]
  402a5e:	e006      	b.n	402a6e <ReadDigitalIn+0x242>
			else
				CBI(mBusRegs[MBUS_REG_DI1],2);
  402a60:	4b0c      	ldr	r3, [pc, #48]	; (402a94 <ReadDigitalIn+0x268>)
  402a62:	885b      	ldrh	r3, [r3, #2]
  402a64:	f023 0304 	bic.w	r3, r3, #4
  402a68:	b29a      	uxth	r2, r3
  402a6a:	4b0a      	ldr	r3, [pc, #40]	; (402a94 <ReadDigitalIn+0x268>)
  402a6c:	805a      	strh	r2, [r3, #2]

			if(gpio_pin_is_high(PIN_MUXOUT3_IDX))
  402a6e:	200b      	movs	r0, #11
  402a70:	4b07      	ldr	r3, [pc, #28]	; (402a90 <ReadDigitalIn+0x264>)
  402a72:	4798      	blx	r3
  402a74:	4603      	mov	r3, r0
  402a76:	2b00      	cmp	r3, #0
  402a78:	d012      	beq.n	402aa0 <ReadDigitalIn+0x274>
				SBI(mBusRegs[MBUS_REG_DI1],10);
  402a7a:	4b06      	ldr	r3, [pc, #24]	; (402a94 <ReadDigitalIn+0x268>)
  402a7c:	885b      	ldrh	r3, [r3, #2]
  402a7e:	f443 6380 	orr.w	r3, r3, #1024	; 0x400
  402a82:	b29a      	uxth	r2, r3
  402a84:	4b03      	ldr	r3, [pc, #12]	; (402a94 <ReadDigitalIn+0x268>)
  402a86:	805a      	strh	r2, [r3, #2]
  402a88:	e011      	b.n	402aae <ReadDigitalIn+0x282>
  402a8a:	bf00      	nop
  402a8c:	200004e7 	.word	0x200004e7
  402a90:	004017e5 	.word	0x004017e5
  402a94:	20000458 	.word	0x20000458
  402a98:	00401815 	.word	0x00401815
  402a9c:	00401845 	.word	0x00401845
			else
				CBI(mBusRegs[MBUS_REG_DI1],10);
  402aa0:	4b95      	ldr	r3, [pc, #596]	; (402cf8 <ReadDigitalIn+0x4cc>)
  402aa2:	885b      	ldrh	r3, [r3, #2]
  402aa4:	f423 6380 	bic.w	r3, r3, #1024	; 0x400
  402aa8:	b29a      	uxth	r2, r3
  402aaa:	4b93      	ldr	r3, [pc, #588]	; (402cf8 <ReadDigitalIn+0x4cc>)
  402aac:	805a      	strh	r2, [r3, #2]

			gpio_set_pin_high(PIN_MUXSEL0_IDX);
  402aae:	2005      	movs	r0, #5
  402ab0:	4b92      	ldr	r3, [pc, #584]	; (402cfc <ReadDigitalIn+0x4d0>)
  402ab2:	4798      	blx	r3
			gpio_set_pin_high(PIN_MUXSEL1_IDX);
  402ab4:	2006      	movs	r0, #6
  402ab6:	4b91      	ldr	r3, [pc, #580]	; (402cfc <ReadDigitalIn+0x4d0>)
  402ab8:	4798      	blx	r3
			gpio_set_pin_low(PIN_MUXSEL2_IDX);
  402aba:	2024      	movs	r0, #36	; 0x24
  402abc:	4b90      	ldr	r3, [pc, #576]	; (402d00 <ReadDigitalIn+0x4d4>)
  402abe:	4798      	blx	r3
			i++;
  402ac0:	4b90      	ldr	r3, [pc, #576]	; (402d04 <ReadDigitalIn+0x4d8>)
  402ac2:	781b      	ldrb	r3, [r3, #0]
  402ac4:	3301      	adds	r3, #1
  402ac6:	b2da      	uxtb	r2, r3
  402ac8:	4b8e      	ldr	r3, [pc, #568]	; (402d04 <ReadDigitalIn+0x4d8>)
  402aca:	701a      	strb	r2, [r3, #0]
			break;
  402acc:	e20b      	b.n	402ee6 <ReadDigitalIn+0x6ba>
		case 3:
			if(gpio_pin_is_high(PIN_MUXOUT0_IDX))
  402ace:	2019      	movs	r0, #25
  402ad0:	4b8d      	ldr	r3, [pc, #564]	; (402d08 <ReadDigitalIn+0x4dc>)
  402ad2:	4798      	blx	r3
  402ad4:	4603      	mov	r3, r0
  402ad6:	2b00      	cmp	r3, #0
  402ad8:	d007      	beq.n	402aea <ReadDigitalIn+0x2be>
				SBI(mBusRegs[MBUS_REG_DI0],3);
  402ada:	4b87      	ldr	r3, [pc, #540]	; (402cf8 <ReadDigitalIn+0x4cc>)
  402adc:	881b      	ldrh	r3, [r3, #0]
  402ade:	f043 0308 	orr.w	r3, r3, #8
  402ae2:	b29a      	uxth	r2, r3
  402ae4:	4b84      	ldr	r3, [pc, #528]	; (402cf8 <ReadDigitalIn+0x4cc>)
  402ae6:	801a      	strh	r2, [r3, #0]
  402ae8:	e006      	b.n	402af8 <ReadDigitalIn+0x2cc>
			else
				CBI(mBusRegs[MBUS_REG_DI0],3);
  402aea:	4b83      	ldr	r3, [pc, #524]	; (402cf8 <ReadDigitalIn+0x4cc>)
  402aec:	881b      	ldrh	r3, [r3, #0]
  402aee:	f023 0308 	bic.w	r3, r3, #8
  402af2:	b29a      	uxth	r2, r3
  402af4:	4b80      	ldr	r3, [pc, #512]	; (402cf8 <ReadDigitalIn+0x4cc>)
  402af6:	801a      	strh	r2, [r3, #0]

			if(gpio_pin_is_high(PIN_MUXOUT1_IDX))
  402af8:	201a      	movs	r0, #26
  402afa:	4b83      	ldr	r3, [pc, #524]	; (402d08 <ReadDigitalIn+0x4dc>)
  402afc:	4798      	blx	r3
  402afe:	4603      	mov	r3, r0
  402b00:	2b00      	cmp	r3, #0
  402b02:	d007      	beq.n	402b14 <ReadDigitalIn+0x2e8>
				SBI(mBusRegs[MBUS_REG_DI0],11);
  402b04:	4b7c      	ldr	r3, [pc, #496]	; (402cf8 <ReadDigitalIn+0x4cc>)
  402b06:	881b      	ldrh	r3, [r3, #0]
  402b08:	f443 6300 	orr.w	r3, r3, #2048	; 0x800
  402b0c:	b29a      	uxth	r2, r3
  402b0e:	4b7a      	ldr	r3, [pc, #488]	; (402cf8 <ReadDigitalIn+0x4cc>)
  402b10:	801a      	strh	r2, [r3, #0]
  402b12:	e006      	b.n	402b22 <ReadDigitalIn+0x2f6>
			else
				CBI(mBusRegs[MBUS_REG_DI0],11);
  402b14:	4b78      	ldr	r3, [pc, #480]	; (402cf8 <ReadDigitalIn+0x4cc>)
  402b16:	881b      	ldrh	r3, [r3, #0]
  402b18:	f423 6300 	bic.w	r3, r3, #2048	; 0x800
  402b1c:	b29a      	uxth	r2, r3
  402b1e:	4b76      	ldr	r3, [pc, #472]	; (402cf8 <ReadDigitalIn+0x4cc>)
  402b20:	801a      	strh	r2, [r3, #0]
			
			if(gpio_pin_is_high(PIN_MUXOUT2_IDX))
  402b22:	200c      	movs	r0, #12
  402b24:	4b78      	ldr	r3, [pc, #480]	; (402d08 <ReadDigitalIn+0x4dc>)
  402b26:	4798      	blx	r3
  402b28:	4603      	mov	r3, r0
  402b2a:	2b00      	cmp	r3, #0
  402b2c:	d007      	beq.n	402b3e <ReadDigitalIn+0x312>
				SBI(mBusRegs[MBUS_REG_DI1],3);
  402b2e:	4b72      	ldr	r3, [pc, #456]	; (402cf8 <ReadDigitalIn+0x4cc>)
  402b30:	885b      	ldrh	r3, [r3, #2]
  402b32:	f043 0308 	orr.w	r3, r3, #8
  402b36:	b29a      	uxth	r2, r3
  402b38:	4b6f      	ldr	r3, [pc, #444]	; (402cf8 <ReadDigitalIn+0x4cc>)
  402b3a:	805a      	strh	r2, [r3, #2]
  402b3c:	e006      	b.n	402b4c <ReadDigitalIn+0x320>
			else
				CBI(mBusRegs[MBUS_REG_DI1],3);
  402b3e:	4b6e      	ldr	r3, [pc, #440]	; (402cf8 <ReadDigitalIn+0x4cc>)
  402b40:	885b      	ldrh	r3, [r3, #2]
  402b42:	f023 0308 	bic.w	r3, r3, #8
  402b46:	b29a      	uxth	r2, r3
  402b48:	4b6b      	ldr	r3, [pc, #428]	; (402cf8 <ReadDigitalIn+0x4cc>)
  402b4a:	805a      	strh	r2, [r3, #2]

			if(gpio_pin_is_high(PIN_MUXOUT3_IDX))
  402b4c:	200b      	movs	r0, #11
  402b4e:	4b6e      	ldr	r3, [pc, #440]	; (402d08 <ReadDigitalIn+0x4dc>)
  402b50:	4798      	blx	r3
  402b52:	4603      	mov	r3, r0
  402b54:	2b00      	cmp	r3, #0
  402b56:	d007      	beq.n	402b68 <ReadDigitalIn+0x33c>
				SBI(mBusRegs[MBUS_REG_DI1],11);
  402b58:	4b67      	ldr	r3, [pc, #412]	; (402cf8 <ReadDigitalIn+0x4cc>)
  402b5a:	885b      	ldrh	r3, [r3, #2]
  402b5c:	f443 6300 	orr.w	r3, r3, #2048	; 0x800
  402b60:	b29a      	uxth	r2, r3
  402b62:	4b65      	ldr	r3, [pc, #404]	; (402cf8 <ReadDigitalIn+0x4cc>)
  402b64:	805a      	strh	r2, [r3, #2]
  402b66:	e006      	b.n	402b76 <ReadDigitalIn+0x34a>
			else
				CBI(mBusRegs[MBUS_REG_DI1],11);
  402b68:	4b63      	ldr	r3, [pc, #396]	; (402cf8 <ReadDigitalIn+0x4cc>)
  402b6a:	885b      	ldrh	r3, [r3, #2]
  402b6c:	f423 6300 	bic.w	r3, r3, #2048	; 0x800
  402b70:	b29a      	uxth	r2, r3
  402b72:	4b61      	ldr	r3, [pc, #388]	; (402cf8 <ReadDigitalIn+0x4cc>)
  402b74:	805a      	strh	r2, [r3, #2]

			gpio_set_pin_low(PIN_MUXSEL0_IDX);
  402b76:	2005      	movs	r0, #5
  402b78:	4b61      	ldr	r3, [pc, #388]	; (402d00 <ReadDigitalIn+0x4d4>)
  402b7a:	4798      	blx	r3
			gpio_set_pin_low(PIN_MUXSEL1_IDX);
  402b7c:	2006      	movs	r0, #6
  402b7e:	4b60      	ldr	r3, [pc, #384]	; (402d00 <ReadDigitalIn+0x4d4>)
  402b80:	4798      	blx	r3
			gpio_set_pin_high(PIN_MUXSEL2_IDX);
  402b82:	2024      	movs	r0, #36	; 0x24
  402b84:	4b5d      	ldr	r3, [pc, #372]	; (402cfc <ReadDigitalIn+0x4d0>)
  402b86:	4798      	blx	r3
			i++;
  402b88:	4b5e      	ldr	r3, [pc, #376]	; (402d04 <ReadDigitalIn+0x4d8>)
  402b8a:	781b      	ldrb	r3, [r3, #0]
  402b8c:	3301      	adds	r3, #1
  402b8e:	b2da      	uxtb	r2, r3
  402b90:	4b5c      	ldr	r3, [pc, #368]	; (402d04 <ReadDigitalIn+0x4d8>)
  402b92:	701a      	strb	r2, [r3, #0]
			break;
  402b94:	e1a7      	b.n	402ee6 <ReadDigitalIn+0x6ba>
		case 4:
			if(gpio_pin_is_high(PIN_MUXOUT0_IDX))
  402b96:	2019      	movs	r0, #25
  402b98:	4b5b      	ldr	r3, [pc, #364]	; (402d08 <ReadDigitalIn+0x4dc>)
  402b9a:	4798      	blx	r3
  402b9c:	4603      	mov	r3, r0
  402b9e:	2b00      	cmp	r3, #0
  402ba0:	d007      	beq.n	402bb2 <ReadDigitalIn+0x386>
				SBI(mBusRegs[MBUS_REG_DI0],4);
  402ba2:	4b55      	ldr	r3, [pc, #340]	; (402cf8 <ReadDigitalIn+0x4cc>)
  402ba4:	881b      	ldrh	r3, [r3, #0]
  402ba6:	f043 0310 	orr.w	r3, r3, #16
  402baa:	b29a      	uxth	r2, r3
  402bac:	4b52      	ldr	r3, [pc, #328]	; (402cf8 <ReadDigitalIn+0x4cc>)
  402bae:	801a      	strh	r2, [r3, #0]
  402bb0:	e006      	b.n	402bc0 <ReadDigitalIn+0x394>
			else
				CBI(mBusRegs[MBUS_REG_DI0],4);
  402bb2:	4b51      	ldr	r3, [pc, #324]	; (402cf8 <ReadDigitalIn+0x4cc>)
  402bb4:	881b      	ldrh	r3, [r3, #0]
  402bb6:	f023 0310 	bic.w	r3, r3, #16
  402bba:	b29a      	uxth	r2, r3
  402bbc:	4b4e      	ldr	r3, [pc, #312]	; (402cf8 <ReadDigitalIn+0x4cc>)
  402bbe:	801a      	strh	r2, [r3, #0]

			if(gpio_pin_is_high(PIN_MUXOUT1_IDX))
  402bc0:	201a      	movs	r0, #26
  402bc2:	4b51      	ldr	r3, [pc, #324]	; (402d08 <ReadDigitalIn+0x4dc>)
  402bc4:	4798      	blx	r3
  402bc6:	4603      	mov	r3, r0
  402bc8:	2b00      	cmp	r3, #0
  402bca:	d007      	beq.n	402bdc <ReadDigitalIn+0x3b0>
				SBI(mBusRegs[MBUS_REG_DI0],12);
  402bcc:	4b4a      	ldr	r3, [pc, #296]	; (402cf8 <ReadDigitalIn+0x4cc>)
  402bce:	881b      	ldrh	r3, [r3, #0]
  402bd0:	f443 5380 	orr.w	r3, r3, #4096	; 0x1000
  402bd4:	b29a      	uxth	r2, r3
  402bd6:	4b48      	ldr	r3, [pc, #288]	; (402cf8 <ReadDigitalIn+0x4cc>)
  402bd8:	801a      	strh	r2, [r3, #0]
  402bda:	e006      	b.n	402bea <ReadDigitalIn+0x3be>
			else
				CBI(mBusRegs[MBUS_REG_DI0],12);
  402bdc:	4b46      	ldr	r3, [pc, #280]	; (402cf8 <ReadDigitalIn+0x4cc>)
  402bde:	881b      	ldrh	r3, [r3, #0]
  402be0:	f423 5380 	bic.w	r3, r3, #4096	; 0x1000
  402be4:	b29a      	uxth	r2, r3
  402be6:	4b44      	ldr	r3, [pc, #272]	; (402cf8 <ReadDigitalIn+0x4cc>)
  402be8:	801a      	strh	r2, [r3, #0]
			
			if(gpio_pin_is_high(PIN_MUXOUT2_IDX))
  402bea:	200c      	movs	r0, #12
  402bec:	4b46      	ldr	r3, [pc, #280]	; (402d08 <ReadDigitalIn+0x4dc>)
  402bee:	4798      	blx	r3
  402bf0:	4603      	mov	r3, r0
  402bf2:	2b00      	cmp	r3, #0
  402bf4:	d007      	beq.n	402c06 <ReadDigitalIn+0x3da>
				SBI(mBusRegs[MBUS_REG_DI1],4);
  402bf6:	4b40      	ldr	r3, [pc, #256]	; (402cf8 <ReadDigitalIn+0x4cc>)
  402bf8:	885b      	ldrh	r3, [r3, #2]
  402bfa:	f043 0310 	orr.w	r3, r3, #16
  402bfe:	b29a      	uxth	r2, r3
  402c00:	4b3d      	ldr	r3, [pc, #244]	; (402cf8 <ReadDigitalIn+0x4cc>)
  402c02:	805a      	strh	r2, [r3, #2]
  402c04:	e006      	b.n	402c14 <ReadDigitalIn+0x3e8>
			else
				CBI(mBusRegs[MBUS_REG_DI1],4);
  402c06:	4b3c      	ldr	r3, [pc, #240]	; (402cf8 <ReadDigitalIn+0x4cc>)
  402c08:	885b      	ldrh	r3, [r3, #2]
  402c0a:	f023 0310 	bic.w	r3, r3, #16
  402c0e:	b29a      	uxth	r2, r3
  402c10:	4b39      	ldr	r3, [pc, #228]	; (402cf8 <ReadDigitalIn+0x4cc>)
  402c12:	805a      	strh	r2, [r3, #2]

			if(gpio_pin_is_high(PIN_MUXOUT3_IDX))
  402c14:	200b      	movs	r0, #11
  402c16:	4b3c      	ldr	r3, [pc, #240]	; (402d08 <ReadDigitalIn+0x4dc>)
  402c18:	4798      	blx	r3
  402c1a:	4603      	mov	r3, r0
  402c1c:	2b00      	cmp	r3, #0
  402c1e:	d007      	beq.n	402c30 <ReadDigitalIn+0x404>
				SBI(mBusRegs[MBUS_REG_DI1],12);
  402c20:	4b35      	ldr	r3, [pc, #212]	; (402cf8 <ReadDigitalIn+0x4cc>)
  402c22:	885b      	ldrh	r3, [r3, #2]
  402c24:	f443 5380 	orr.w	r3, r3, #4096	; 0x1000
  402c28:	b29a      	uxth	r2, r3
  402c2a:	4b33      	ldr	r3, [pc, #204]	; (402cf8 <ReadDigitalIn+0x4cc>)
  402c2c:	805a      	strh	r2, [r3, #2]
  402c2e:	e006      	b.n	402c3e <ReadDigitalIn+0x412>
			else
				CBI(mBusRegs[MBUS_REG_DI1],12);
  402c30:	4b31      	ldr	r3, [pc, #196]	; (402cf8 <ReadDigitalIn+0x4cc>)
  402c32:	885b      	ldrh	r3, [r3, #2]
  402c34:	f423 5380 	bic.w	r3, r3, #4096	; 0x1000
  402c38:	b29a      	uxth	r2, r3
  402c3a:	4b2f      	ldr	r3, [pc, #188]	; (402cf8 <ReadDigitalIn+0x4cc>)
  402c3c:	805a      	strh	r2, [r3, #2]
			
			gpio_set_pin_high(PIN_MUXSEL0_IDX);
  402c3e:	2005      	movs	r0, #5
  402c40:	4b2e      	ldr	r3, [pc, #184]	; (402cfc <ReadDigitalIn+0x4d0>)
  402c42:	4798      	blx	r3
			gpio_set_pin_low(PIN_MUXSEL1_IDX);
  402c44:	2006      	movs	r0, #6
  402c46:	4b2e      	ldr	r3, [pc, #184]	; (402d00 <ReadDigitalIn+0x4d4>)
  402c48:	4798      	blx	r3
			gpio_set_pin_high(PIN_MUXSEL2_IDX);
  402c4a:	2024      	movs	r0, #36	; 0x24
  402c4c:	4b2b      	ldr	r3, [pc, #172]	; (402cfc <ReadDigitalIn+0x4d0>)
  402c4e:	4798      	blx	r3
			i++;
  402c50:	4b2c      	ldr	r3, [pc, #176]	; (402d04 <ReadDigitalIn+0x4d8>)
  402c52:	781b      	ldrb	r3, [r3, #0]
  402c54:	3301      	adds	r3, #1
  402c56:	b2da      	uxtb	r2, r3
  402c58:	4b2a      	ldr	r3, [pc, #168]	; (402d04 <ReadDigitalIn+0x4d8>)
  402c5a:	701a      	strb	r2, [r3, #0]
			break;
  402c5c:	e143      	b.n	402ee6 <ReadDigitalIn+0x6ba>
		case 5:
			if(gpio_pin_is_high(PIN_MUXOUT0_IDX))
  402c5e:	2019      	movs	r0, #25
  402c60:	4b29      	ldr	r3, [pc, #164]	; (402d08 <ReadDigitalIn+0x4dc>)
  402c62:	4798      	blx	r3
  402c64:	4603      	mov	r3, r0
  402c66:	2b00      	cmp	r3, #0
  402c68:	d007      	beq.n	402c7a <ReadDigitalIn+0x44e>
				SBI(mBusRegs[MBUS_REG_DI0],5);
  402c6a:	4b23      	ldr	r3, [pc, #140]	; (402cf8 <ReadDigitalIn+0x4cc>)
  402c6c:	881b      	ldrh	r3, [r3, #0]
  402c6e:	f043 0320 	orr.w	r3, r3, #32
  402c72:	b29a      	uxth	r2, r3
  402c74:	4b20      	ldr	r3, [pc, #128]	; (402cf8 <ReadDigitalIn+0x4cc>)
  402c76:	801a      	strh	r2, [r3, #0]
  402c78:	e006      	b.n	402c88 <ReadDigitalIn+0x45c>
			else
				CBI(mBusRegs[MBUS_REG_DI0],5);
  402c7a:	4b1f      	ldr	r3, [pc, #124]	; (402cf8 <ReadDigitalIn+0x4cc>)
  402c7c:	881b      	ldrh	r3, [r3, #0]
  402c7e:	f023 0320 	bic.w	r3, r3, #32
  402c82:	b29a      	uxth	r2, r3
  402c84:	4b1c      	ldr	r3, [pc, #112]	; (402cf8 <ReadDigitalIn+0x4cc>)
  402c86:	801a      	strh	r2, [r3, #0]

			if(gpio_pin_is_high(PIN_MUXOUT1_IDX))
  402c88:	201a      	movs	r0, #26
  402c8a:	4b1f      	ldr	r3, [pc, #124]	; (402d08 <ReadDigitalIn+0x4dc>)
  402c8c:	4798      	blx	r3
  402c8e:	4603      	mov	r3, r0
  402c90:	2b00      	cmp	r3, #0
  402c92:	d007      	beq.n	402ca4 <ReadDigitalIn+0x478>
				SBI(mBusRegs[MBUS_REG_DI0],13);
  402c94:	4b18      	ldr	r3, [pc, #96]	; (402cf8 <ReadDigitalIn+0x4cc>)
  402c96:	881b      	ldrh	r3, [r3, #0]
  402c98:	f443 5300 	orr.w	r3, r3, #8192	; 0x2000
  402c9c:	b29a      	uxth	r2, r3
  402c9e:	4b16      	ldr	r3, [pc, #88]	; (402cf8 <ReadDigitalIn+0x4cc>)
  402ca0:	801a      	strh	r2, [r3, #0]
  402ca2:	e006      	b.n	402cb2 <ReadDigitalIn+0x486>
			else
				CBI(mBusRegs[MBUS_REG_DI0],13);
  402ca4:	4b14      	ldr	r3, [pc, #80]	; (402cf8 <ReadDigitalIn+0x4cc>)
  402ca6:	881b      	ldrh	r3, [r3, #0]
  402ca8:	f423 5300 	bic.w	r3, r3, #8192	; 0x2000
  402cac:	b29a      	uxth	r2, r3
  402cae:	4b12      	ldr	r3, [pc, #72]	; (402cf8 <ReadDigitalIn+0x4cc>)
  402cb0:	801a      	strh	r2, [r3, #0]
			
			if(gpio_pin_is_high(PIN_MUXOUT2_IDX))
  402cb2:	200c      	movs	r0, #12
  402cb4:	4b14      	ldr	r3, [pc, #80]	; (402d08 <ReadDigitalIn+0x4dc>)
  402cb6:	4798      	blx	r3
  402cb8:	4603      	mov	r3, r0
  402cba:	2b00      	cmp	r3, #0
  402cbc:	d007      	beq.n	402cce <ReadDigitalIn+0x4a2>
				SBI(mBusRegs[MBUS_REG_DI1],5);
  402cbe:	4b0e      	ldr	r3, [pc, #56]	; (402cf8 <ReadDigitalIn+0x4cc>)
  402cc0:	885b      	ldrh	r3, [r3, #2]
  402cc2:	f043 0320 	orr.w	r3, r3, #32
  402cc6:	b29a      	uxth	r2, r3
  402cc8:	4b0b      	ldr	r3, [pc, #44]	; (402cf8 <ReadDigitalIn+0x4cc>)
  402cca:	805a      	strh	r2, [r3, #2]
  402ccc:	e006      	b.n	402cdc <ReadDigitalIn+0x4b0>
			else
				CBI(mBusRegs[MBUS_REG_DI1],5);
  402cce:	4b0a      	ldr	r3, [pc, #40]	; (402cf8 <ReadDigitalIn+0x4cc>)
  402cd0:	885b      	ldrh	r3, [r3, #2]
  402cd2:	f023 0320 	bic.w	r3, r3, #32
  402cd6:	b29a      	uxth	r2, r3
  402cd8:	4b07      	ldr	r3, [pc, #28]	; (402cf8 <ReadDigitalIn+0x4cc>)
  402cda:	805a      	strh	r2, [r3, #2]

			if(gpio_pin_is_high(PIN_MUXOUT3_IDX))
  402cdc:	200b      	movs	r0, #11
  402cde:	4b0a      	ldr	r3, [pc, #40]	; (402d08 <ReadDigitalIn+0x4dc>)
  402ce0:	4798      	blx	r3
  402ce2:	4603      	mov	r3, r0
  402ce4:	2b00      	cmp	r3, #0
  402ce6:	d011      	beq.n	402d0c <ReadDigitalIn+0x4e0>
				SBI(mBusRegs[MBUS_REG_DI1],13);
  402ce8:	4b03      	ldr	r3, [pc, #12]	; (402cf8 <ReadDigitalIn+0x4cc>)
  402cea:	885b      	ldrh	r3, [r3, #2]
  402cec:	f443 5300 	orr.w	r3, r3, #8192	; 0x2000
  402cf0:	b29a      	uxth	r2, r3
  402cf2:	4b01      	ldr	r3, [pc, #4]	; (402cf8 <ReadDigitalIn+0x4cc>)
  402cf4:	805a      	strh	r2, [r3, #2]
  402cf6:	e010      	b.n	402d1a <ReadDigitalIn+0x4ee>
  402cf8:	20000458 	.word	0x20000458
  402cfc:	00401815 	.word	0x00401815
  402d00:	00401845 	.word	0x00401845
  402d04:	200004e7 	.word	0x200004e7
  402d08:	004017e5 	.word	0x004017e5
			else
				CBI(mBusRegs[MBUS_REG_DI1],13);
  402d0c:	4b77      	ldr	r3, [pc, #476]	; (402eec <ReadDigitalIn+0x6c0>)
  402d0e:	885b      	ldrh	r3, [r3, #2]
  402d10:	f423 5300 	bic.w	r3, r3, #8192	; 0x2000
  402d14:	b29a      	uxth	r2, r3
  402d16:	4b75      	ldr	r3, [pc, #468]	; (402eec <ReadDigitalIn+0x6c0>)
  402d18:	805a      	strh	r2, [r3, #2]
			
			gpio_set_pin_low(PIN_MUXSEL0_IDX);
  402d1a:	2005      	movs	r0, #5
  402d1c:	4b74      	ldr	r3, [pc, #464]	; (402ef0 <ReadDigitalIn+0x6c4>)
  402d1e:	4798      	blx	r3
			gpio_set_pin_high(PIN_MUXSEL1_IDX);
  402d20:	2006      	movs	r0, #6
  402d22:	4b74      	ldr	r3, [pc, #464]	; (402ef4 <ReadDigitalIn+0x6c8>)
  402d24:	4798      	blx	r3
			gpio_set_pin_high(PIN_MUXSEL2_IDX);
  402d26:	2024      	movs	r0, #36	; 0x24
  402d28:	4b72      	ldr	r3, [pc, #456]	; (402ef4 <ReadDigitalIn+0x6c8>)
  402d2a:	4798      	blx	r3
			i++;
  402d2c:	4b72      	ldr	r3, [pc, #456]	; (402ef8 <ReadDigitalIn+0x6cc>)
  402d2e:	781b      	ldrb	r3, [r3, #0]
  402d30:	3301      	adds	r3, #1
  402d32:	b2da      	uxtb	r2, r3
  402d34:	4b70      	ldr	r3, [pc, #448]	; (402ef8 <ReadDigitalIn+0x6cc>)
  402d36:	701a      	strb	r2, [r3, #0]
			break;
  402d38:	e0d5      	b.n	402ee6 <ReadDigitalIn+0x6ba>
		case 6:
			if(gpio_pin_is_high(PIN_MUXOUT0_IDX))
  402d3a:	2019      	movs	r0, #25
  402d3c:	4b6f      	ldr	r3, [pc, #444]	; (402efc <ReadDigitalIn+0x6d0>)
  402d3e:	4798      	blx	r3
  402d40:	4603      	mov	r3, r0
  402d42:	2b00      	cmp	r3, #0
  402d44:	d007      	beq.n	402d56 <ReadDigitalIn+0x52a>
				SBI(mBusRegs[MBUS_REG_DI0],6);
  402d46:	4b69      	ldr	r3, [pc, #420]	; (402eec <ReadDigitalIn+0x6c0>)
  402d48:	881b      	ldrh	r3, [r3, #0]
  402d4a:	f043 0340 	orr.w	r3, r3, #64	; 0x40
  402d4e:	b29a      	uxth	r2, r3
  402d50:	4b66      	ldr	r3, [pc, #408]	; (402eec <ReadDigitalIn+0x6c0>)
  402d52:	801a      	strh	r2, [r3, #0]
  402d54:	e006      	b.n	402d64 <ReadDigitalIn+0x538>
			else
				CBI(mBusRegs[MBUS_REG_DI0],6);
  402d56:	4b65      	ldr	r3, [pc, #404]	; (402eec <ReadDigitalIn+0x6c0>)
  402d58:	881b      	ldrh	r3, [r3, #0]
  402d5a:	f023 0340 	bic.w	r3, r3, #64	; 0x40
  402d5e:	b29a      	uxth	r2, r3
  402d60:	4b62      	ldr	r3, [pc, #392]	; (402eec <ReadDigitalIn+0x6c0>)
  402d62:	801a      	strh	r2, [r3, #0]

			if(gpio_pin_is_high(PIN_MUXOUT1_IDX))
  402d64:	201a      	movs	r0, #26
  402d66:	4b65      	ldr	r3, [pc, #404]	; (402efc <ReadDigitalIn+0x6d0>)
  402d68:	4798      	blx	r3
  402d6a:	4603      	mov	r3, r0
  402d6c:	2b00      	cmp	r3, #0
  402d6e:	d007      	beq.n	402d80 <ReadDigitalIn+0x554>
				SBI(mBusRegs[MBUS_REG_DI0],14);
  402d70:	4b5e      	ldr	r3, [pc, #376]	; (402eec <ReadDigitalIn+0x6c0>)
  402d72:	881b      	ldrh	r3, [r3, #0]
  402d74:	f443 4380 	orr.w	r3, r3, #16384	; 0x4000
  402d78:	b29a      	uxth	r2, r3
  402d7a:	4b5c      	ldr	r3, [pc, #368]	; (402eec <ReadDigitalIn+0x6c0>)
  402d7c:	801a      	strh	r2, [r3, #0]
  402d7e:	e006      	b.n	402d8e <ReadDigitalIn+0x562>
			else
				CBI(mBusRegs[MBUS_REG_DI0],14);
  402d80:	4b5a      	ldr	r3, [pc, #360]	; (402eec <ReadDigitalIn+0x6c0>)
  402d82:	881b      	ldrh	r3, [r3, #0]
  402d84:	f423 4380 	bic.w	r3, r3, #16384	; 0x4000
  402d88:	b29a      	uxth	r2, r3
  402d8a:	4b58      	ldr	r3, [pc, #352]	; (402eec <ReadDigitalIn+0x6c0>)
  402d8c:	801a      	strh	r2, [r3, #0]
			
			if(gpio_pin_is_high(PIN_MUXOUT2_IDX))
  402d8e:	200c      	movs	r0, #12
  402d90:	4b5a      	ldr	r3, [pc, #360]	; (402efc <ReadDigitalIn+0x6d0>)
  402d92:	4798      	blx	r3
  402d94:	4603      	mov	r3, r0
  402d96:	2b00      	cmp	r3, #0
  402d98:	d007      	beq.n	402daa <ReadDigitalIn+0x57e>
				SBI(mBusRegs[MBUS_REG_DI1],6);
  402d9a:	4b54      	ldr	r3, [pc, #336]	; (402eec <ReadDigitalIn+0x6c0>)
  402d9c:	885b      	ldrh	r3, [r3, #2]
  402d9e:	f043 0340 	orr.w	r3, r3, #64	; 0x40
  402da2:	b29a      	uxth	r2, r3
  402da4:	4b51      	ldr	r3, [pc, #324]	; (402eec <ReadDigitalIn+0x6c0>)
  402da6:	805a      	strh	r2, [r3, #2]
  402da8:	e006      	b.n	402db8 <ReadDigitalIn+0x58c>
			else
				CBI(mBusRegs[MBUS_REG_DI1],6);
  402daa:	4b50      	ldr	r3, [pc, #320]	; (402eec <ReadDigitalIn+0x6c0>)
  402dac:	885b      	ldrh	r3, [r3, #2]
  402dae:	f023 0340 	bic.w	r3, r3, #64	; 0x40
  402db2:	b29a      	uxth	r2, r3
  402db4:	4b4d      	ldr	r3, [pc, #308]	; (402eec <ReadDigitalIn+0x6c0>)
  402db6:	805a      	strh	r2, [r3, #2]

			if(gpio_pin_is_high(PIN_MUXOUT3_IDX))
  402db8:	200b      	movs	r0, #11
  402dba:	4b50      	ldr	r3, [pc, #320]	; (402efc <ReadDigitalIn+0x6d0>)
  402dbc:	4798      	blx	r3
  402dbe:	4603      	mov	r3, r0
  402dc0:	2b00      	cmp	r3, #0
  402dc2:	d007      	beq.n	402dd4 <ReadDigitalIn+0x5a8>
				SBI(mBusRegs[MBUS_REG_DI1],14);
  402dc4:	4b49      	ldr	r3, [pc, #292]	; (402eec <ReadDigitalIn+0x6c0>)
  402dc6:	885b      	ldrh	r3, [r3, #2]
  402dc8:	f443 4380 	orr.w	r3, r3, #16384	; 0x4000
  402dcc:	b29a      	uxth	r2, r3
  402dce:	4b47      	ldr	r3, [pc, #284]	; (402eec <ReadDigitalIn+0x6c0>)
  402dd0:	805a      	strh	r2, [r3, #2]
  402dd2:	e006      	b.n	402de2 <ReadDigitalIn+0x5b6>
			else
				CBI(mBusRegs[MBUS_REG_DI1],14);
  402dd4:	4b45      	ldr	r3, [pc, #276]	; (402eec <ReadDigitalIn+0x6c0>)
  402dd6:	885b      	ldrh	r3, [r3, #2]
  402dd8:	f423 4380 	bic.w	r3, r3, #16384	; 0x4000
  402ddc:	b29a      	uxth	r2, r3
  402dde:	4b43      	ldr	r3, [pc, #268]	; (402eec <ReadDigitalIn+0x6c0>)
  402de0:	805a      	strh	r2, [r3, #2]

			gpio_set_pin_high(PIN_MUXSEL0_IDX);
  402de2:	2005      	movs	r0, #5
  402de4:	4b43      	ldr	r3, [pc, #268]	; (402ef4 <ReadDigitalIn+0x6c8>)
  402de6:	4798      	blx	r3
			gpio_set_pin_high(PIN_MUXSEL1_IDX);
  402de8:	2006      	movs	r0, #6
  402dea:	4b42      	ldr	r3, [pc, #264]	; (402ef4 <ReadDigitalIn+0x6c8>)
  402dec:	4798      	blx	r3
			gpio_set_pin_high(PIN_MUXSEL2_IDX);
  402dee:	2024      	movs	r0, #36	; 0x24
  402df0:	4b40      	ldr	r3, [pc, #256]	; (402ef4 <ReadDigitalIn+0x6c8>)
  402df2:	4798      	blx	r3
			i++;
  402df4:	4b40      	ldr	r3, [pc, #256]	; (402ef8 <ReadDigitalIn+0x6cc>)
  402df6:	781b      	ldrb	r3, [r3, #0]
  402df8:	3301      	adds	r3, #1
  402dfa:	b2da      	uxtb	r2, r3
  402dfc:	4b3e      	ldr	r3, [pc, #248]	; (402ef8 <ReadDigitalIn+0x6cc>)
  402dfe:	701a      	strb	r2, [r3, #0]
			break;
  402e00:	e071      	b.n	402ee6 <ReadDigitalIn+0x6ba>
		case 7:
			if(gpio_pin_is_high(PIN_MUXOUT0_IDX))
  402e02:	2019      	movs	r0, #25
  402e04:	4b3d      	ldr	r3, [pc, #244]	; (402efc <ReadDigitalIn+0x6d0>)
  402e06:	4798      	blx	r3
  402e08:	4603      	mov	r3, r0
  402e0a:	2b00      	cmp	r3, #0
  402e0c:	d007      	beq.n	402e1e <ReadDigitalIn+0x5f2>
				SBI(mBusRegs[MBUS_REG_DI0],7);
  402e0e:	4b37      	ldr	r3, [pc, #220]	; (402eec <ReadDigitalIn+0x6c0>)
  402e10:	881b      	ldrh	r3, [r3, #0]
  402e12:	f043 0380 	orr.w	r3, r3, #128	; 0x80
  402e16:	b29a      	uxth	r2, r3
  402e18:	4b34      	ldr	r3, [pc, #208]	; (402eec <ReadDigitalIn+0x6c0>)
  402e1a:	801a      	strh	r2, [r3, #0]
  402e1c:	e006      	b.n	402e2c <ReadDigitalIn+0x600>
			else
				CBI(mBusRegs[MBUS_REG_DI0],7);
  402e1e:	4b33      	ldr	r3, [pc, #204]	; (402eec <ReadDigitalIn+0x6c0>)
  402e20:	881b      	ldrh	r3, [r3, #0]
  402e22:	f023 0380 	bic.w	r3, r3, #128	; 0x80
  402e26:	b29a      	uxth	r2, r3
  402e28:	4b30      	ldr	r3, [pc, #192]	; (402eec <ReadDigitalIn+0x6c0>)
  402e2a:	801a      	strh	r2, [r3, #0]

			if(gpio_pin_is_high(PIN_MUXOUT1_IDX))
  402e2c:	201a      	movs	r0, #26
  402e2e:	4b33      	ldr	r3, [pc, #204]	; (402efc <ReadDigitalIn+0x6d0>)
  402e30:	4798      	blx	r3
  402e32:	4603      	mov	r3, r0
  402e34:	2b00      	cmp	r3, #0
  402e36:	d009      	beq.n	402e4c <ReadDigitalIn+0x620>
				SBI(mBusRegs[MBUS_REG_DI0],15);
  402e38:	4b2c      	ldr	r3, [pc, #176]	; (402eec <ReadDigitalIn+0x6c0>)
  402e3a:	881b      	ldrh	r3, [r3, #0]
  402e3c:	ea6f 4343 	mvn.w	r3, r3, lsl #17
  402e40:	ea6f 4353 	mvn.w	r3, r3, lsr #17
  402e44:	b29a      	uxth	r2, r3
  402e46:	4b29      	ldr	r3, [pc, #164]	; (402eec <ReadDigitalIn+0x6c0>)
  402e48:	801a      	strh	r2, [r3, #0]
  402e4a:	e006      	b.n	402e5a <ReadDigitalIn+0x62e>
			else
				CBI(mBusRegs[MBUS_REG_DI0],15);
  402e4c:	4b27      	ldr	r3, [pc, #156]	; (402eec <ReadDigitalIn+0x6c0>)
  402e4e:	881b      	ldrh	r3, [r3, #0]
  402e50:	f3c3 030e 	ubfx	r3, r3, #0, #15
  402e54:	b29a      	uxth	r2, r3
  402e56:	4b25      	ldr	r3, [pc, #148]	; (402eec <ReadDigitalIn+0x6c0>)
  402e58:	801a      	strh	r2, [r3, #0]
			
			if(gpio_pin_is_high(PIN_MUXOUT2_IDX))
  402e5a:	200c      	movs	r0, #12
  402e5c:	4b27      	ldr	r3, [pc, #156]	; (402efc <ReadDigitalIn+0x6d0>)
  402e5e:	4798      	blx	r3
  402e60:	4603      	mov	r3, r0
  402e62:	2b00      	cmp	r3, #0
  402e64:	d007      	beq.n	402e76 <ReadDigitalIn+0x64a>
				SBI(mBusRegs[MBUS_REG_DI1],7);
  402e66:	4b21      	ldr	r3, [pc, #132]	; (402eec <ReadDigitalIn+0x6c0>)
  402e68:	885b      	ldrh	r3, [r3, #2]
  402e6a:	f043 0380 	orr.w	r3, r3, #128	; 0x80
  402e6e:	b29a      	uxth	r2, r3
  402e70:	4b1e      	ldr	r3, [pc, #120]	; (402eec <ReadDigitalIn+0x6c0>)
  402e72:	805a      	strh	r2, [r3, #2]
  402e74:	e006      	b.n	402e84 <ReadDigitalIn+0x658>
			else
				CBI(mBusRegs[MBUS_REG_DI1],7);
  402e76:	4b1d      	ldr	r3, [pc, #116]	; (402eec <ReadDigitalIn+0x6c0>)
  402e78:	885b      	ldrh	r3, [r3, #2]
  402e7a:	f023 0380 	bic.w	r3, r3, #128	; 0x80
  402e7e:	b29a      	uxth	r2, r3
  402e80:	4b1a      	ldr	r3, [pc, #104]	; (402eec <ReadDigitalIn+0x6c0>)
  402e82:	805a      	strh	r2, [r3, #2]

			if(gpio_pin_is_high(PIN_MUXOUT3_IDX))
  402e84:	200b      	movs	r0, #11
  402e86:	4b1d      	ldr	r3, [pc, #116]	; (402efc <ReadDigitalIn+0x6d0>)
  402e88:	4798      	blx	r3
  402e8a:	4603      	mov	r3, r0
  402e8c:	2b00      	cmp	r3, #0
  402e8e:	d009      	beq.n	402ea4 <ReadDigitalIn+0x678>
				SBI(mBusRegs[MBUS_REG_DI1],15);
  402e90:	4b16      	ldr	r3, [pc, #88]	; (402eec <ReadDigitalIn+0x6c0>)
  402e92:	885b      	ldrh	r3, [r3, #2]
  402e94:	ea6f 4343 	mvn.w	r3, r3, lsl #17
  402e98:	ea6f 4353 	mvn.w	r3, r3, lsr #17
  402e9c:	b29a      	uxth	r2, r3
  402e9e:	4b13      	ldr	r3, [pc, #76]	; (402eec <ReadDigitalIn+0x6c0>)
  402ea0:	805a      	strh	r2, [r3, #2]
  402ea2:	e006      	b.n	402eb2 <ReadDigitalIn+0x686>
			else
				CBI(mBusRegs[MBUS_REG_DI1],15);
  402ea4:	4b11      	ldr	r3, [pc, #68]	; (402eec <ReadDigitalIn+0x6c0>)
  402ea6:	885b      	ldrh	r3, [r3, #2]
  402ea8:	f3c3 030e 	ubfx	r3, r3, #0, #15
  402eac:	b29a      	uxth	r2, r3
  402eae:	4b0f      	ldr	r3, [pc, #60]	; (402eec <ReadDigitalIn+0x6c0>)
  402eb0:	805a      	strh	r2, [r3, #2]
			
			i = 0;
  402eb2:	4b11      	ldr	r3, [pc, #68]	; (402ef8 <ReadDigitalIn+0x6cc>)
  402eb4:	2200      	movs	r2, #0
  402eb6:	701a      	strb	r2, [r3, #0]
			gpio_set_pin_low(PIN_MUXSEL0_IDX);
  402eb8:	2005      	movs	r0, #5
  402eba:	4b0d      	ldr	r3, [pc, #52]	; (402ef0 <ReadDigitalIn+0x6c4>)
  402ebc:	4798      	blx	r3
			gpio_set_pin_low(PIN_MUXSEL1_IDX);
  402ebe:	2006      	movs	r0, #6
  402ec0:	4b0b      	ldr	r3, [pc, #44]	; (402ef0 <ReadDigitalIn+0x6c4>)
  402ec2:	4798      	blx	r3
			gpio_set_pin_low(PIN_MUXSEL2_IDX);
  402ec4:	2024      	movs	r0, #36	; 0x24
  402ec6:	4b0a      	ldr	r3, [pc, #40]	; (402ef0 <ReadDigitalIn+0x6c4>)
  402ec8:	4798      	blx	r3
			break;
  402eca:	e00c      	b.n	402ee6 <ReadDigitalIn+0x6ba>
		default:
			i = 0;
  402ecc:	4b0a      	ldr	r3, [pc, #40]	; (402ef8 <ReadDigitalIn+0x6cc>)
  402ece:	2200      	movs	r2, #0
  402ed0:	701a      	strb	r2, [r3, #0]
			gpio_set_pin_low(PIN_MUXSEL0_IDX);
  402ed2:	2005      	movs	r0, #5
  402ed4:	4b06      	ldr	r3, [pc, #24]	; (402ef0 <ReadDigitalIn+0x6c4>)
  402ed6:	4798      	blx	r3
			gpio_set_pin_low(PIN_MUXSEL1_IDX);
  402ed8:	2006      	movs	r0, #6
  402eda:	4b05      	ldr	r3, [pc, #20]	; (402ef0 <ReadDigitalIn+0x6c4>)
  402edc:	4798      	blx	r3
			gpio_set_pin_low(PIN_MUXSEL2_IDX);
  402ede:	2024      	movs	r0, #36	; 0x24
  402ee0:	4b03      	ldr	r3, [pc, #12]	; (402ef0 <ReadDigitalIn+0x6c4>)
  402ee2:	4798      	blx	r3
			break;
  402ee4:	bf00      	nop
	}
  402ee6:	bf00      	nop
  402ee8:	bd80      	pop	{r7, pc}
  402eea:	bf00      	nop
  402eec:	20000458 	.word	0x20000458
  402ef0:	00401845 	.word	0x00401845
  402ef4:	00401815 	.word	0x00401815
  402ef8:	200004e7 	.word	0x200004e7
  402efc:	004017e5 	.word	0x004017e5

00402f00 <__aeabi_uldivmod>:
  402f00:	b953      	cbnz	r3, 402f18 <__aeabi_uldivmod+0x18>
  402f02:	b94a      	cbnz	r2, 402f18 <__aeabi_uldivmod+0x18>
  402f04:	2900      	cmp	r1, #0
  402f06:	bf08      	it	eq
  402f08:	2800      	cmpeq	r0, #0
  402f0a:	bf1c      	itt	ne
  402f0c:	f04f 31ff 	movne.w	r1, #4294967295
  402f10:	f04f 30ff 	movne.w	r0, #4294967295
  402f14:	f000 b97e 	b.w	403214 <__aeabi_idiv0>
  402f18:	f1ad 0c08 	sub.w	ip, sp, #8
  402f1c:	e96d ce04 	strd	ip, lr, [sp, #-16]!
  402f20:	f000 f806 	bl	402f30 <__udivmoddi4>
  402f24:	f8dd e004 	ldr.w	lr, [sp, #4]
  402f28:	e9dd 2302 	ldrd	r2, r3, [sp, #8]
  402f2c:	b004      	add	sp, #16
  402f2e:	4770      	bx	lr

00402f30 <__udivmoddi4>:
  402f30:	e92d 47f0 	stmdb	sp!, {r4, r5, r6, r7, r8, r9, sl, lr}
  402f34:	468c      	mov	ip, r1
  402f36:	460e      	mov	r6, r1
  402f38:	4604      	mov	r4, r0
  402f3a:	9d08      	ldr	r5, [sp, #32]
  402f3c:	2b00      	cmp	r3, #0
  402f3e:	d150      	bne.n	402fe2 <__udivmoddi4+0xb2>
  402f40:	428a      	cmp	r2, r1
  402f42:	4617      	mov	r7, r2
  402f44:	d96c      	bls.n	403020 <__udivmoddi4+0xf0>
  402f46:	fab2 fe82 	clz	lr, r2
  402f4a:	f1be 0f00 	cmp.w	lr, #0
  402f4e:	d00b      	beq.n	402f68 <__udivmoddi4+0x38>
  402f50:	f1ce 0420 	rsb	r4, lr, #32
  402f54:	fa20 f404 	lsr.w	r4, r0, r4
  402f58:	fa01 f60e 	lsl.w	r6, r1, lr
  402f5c:	ea44 0c06 	orr.w	ip, r4, r6
  402f60:	fa02 f70e 	lsl.w	r7, r2, lr
  402f64:	fa00 f40e 	lsl.w	r4, r0, lr
  402f68:	ea4f 4917 	mov.w	r9, r7, lsr #16
  402f6c:	0c22      	lsrs	r2, r4, #16
  402f6e:	fbbc f0f9 	udiv	r0, ip, r9
  402f72:	fa1f f887 	uxth.w	r8, r7
  402f76:	fb09 c610 	mls	r6, r9, r0, ip
  402f7a:	ea42 4606 	orr.w	r6, r2, r6, lsl #16
  402f7e:	fb00 f308 	mul.w	r3, r0, r8
  402f82:	42b3      	cmp	r3, r6
  402f84:	d909      	bls.n	402f9a <__udivmoddi4+0x6a>
  402f86:	19f6      	adds	r6, r6, r7
  402f88:	f100 32ff 	add.w	r2, r0, #4294967295
  402f8c:	f080 8122 	bcs.w	4031d4 <__udivmoddi4+0x2a4>
  402f90:	42b3      	cmp	r3, r6
  402f92:	f240 811f 	bls.w	4031d4 <__udivmoddi4+0x2a4>
  402f96:	3802      	subs	r0, #2
  402f98:	443e      	add	r6, r7
  402f9a:	1af6      	subs	r6, r6, r3
  402f9c:	b2a2      	uxth	r2, r4
  402f9e:	fbb6 f3f9 	udiv	r3, r6, r9
  402fa2:	fb09 6613 	mls	r6, r9, r3, r6
  402fa6:	ea42 4406 	orr.w	r4, r2, r6, lsl #16
  402faa:	fb03 f808 	mul.w	r8, r3, r8
  402fae:	45a0      	cmp	r8, r4
  402fb0:	d909      	bls.n	402fc6 <__udivmoddi4+0x96>
  402fb2:	19e4      	adds	r4, r4, r7
  402fb4:	f103 32ff 	add.w	r2, r3, #4294967295
  402fb8:	f080 810a 	bcs.w	4031d0 <__udivmoddi4+0x2a0>
  402fbc:	45a0      	cmp	r8, r4
  402fbe:	f240 8107 	bls.w	4031d0 <__udivmoddi4+0x2a0>
  402fc2:	3b02      	subs	r3, #2
  402fc4:	443c      	add	r4, r7
  402fc6:	ebc8 0404 	rsb	r4, r8, r4
  402fca:	ea43 4000 	orr.w	r0, r3, r0, lsl #16
  402fce:	2100      	movs	r1, #0
  402fd0:	2d00      	cmp	r5, #0
  402fd2:	d062      	beq.n	40309a <__udivmoddi4+0x16a>
  402fd4:	fa24 f40e 	lsr.w	r4, r4, lr
  402fd8:	2300      	movs	r3, #0
  402fda:	602c      	str	r4, [r5, #0]
  402fdc:	606b      	str	r3, [r5, #4]
  402fde:	e8bd 87f0 	ldmia.w	sp!, {r4, r5, r6, r7, r8, r9, sl, pc}
  402fe2:	428b      	cmp	r3, r1
  402fe4:	d907      	bls.n	402ff6 <__udivmoddi4+0xc6>
  402fe6:	2d00      	cmp	r5, #0
  402fe8:	d055      	beq.n	403096 <__udivmoddi4+0x166>
  402fea:	2100      	movs	r1, #0
  402fec:	e885 0041 	stmia.w	r5, {r0, r6}
  402ff0:	4608      	mov	r0, r1
  402ff2:	e8bd 87f0 	ldmia.w	sp!, {r4, r5, r6, r7, r8, r9, sl, pc}
  402ff6:	fab3 f183 	clz	r1, r3
  402ffa:	2900      	cmp	r1, #0
  402ffc:	f040 8090 	bne.w	403120 <__udivmoddi4+0x1f0>
  403000:	42b3      	cmp	r3, r6
  403002:	d302      	bcc.n	40300a <__udivmoddi4+0xda>
  403004:	4282      	cmp	r2, r0
  403006:	f200 80f8 	bhi.w	4031fa <__udivmoddi4+0x2ca>
  40300a:	1a84      	subs	r4, r0, r2
  40300c:	eb66 0603 	sbc.w	r6, r6, r3
  403010:	2001      	movs	r0, #1
  403012:	46b4      	mov	ip, r6
  403014:	2d00      	cmp	r5, #0
  403016:	d040      	beq.n	40309a <__udivmoddi4+0x16a>
  403018:	e885 1010 	stmia.w	r5, {r4, ip}
  40301c:	e8bd 87f0 	ldmia.w	sp!, {r4, r5, r6, r7, r8, r9, sl, pc}
  403020:	b912      	cbnz	r2, 403028 <__udivmoddi4+0xf8>
  403022:	2701      	movs	r7, #1
  403024:	fbb7 f7f2 	udiv	r7, r7, r2
  403028:	fab7 fe87 	clz	lr, r7
  40302c:	f1be 0f00 	cmp.w	lr, #0
  403030:	d135      	bne.n	40309e <__udivmoddi4+0x16e>
  403032:	1bf3      	subs	r3, r6, r7
  403034:	ea4f 4817 	mov.w	r8, r7, lsr #16
  403038:	fa1f fc87 	uxth.w	ip, r7
  40303c:	2101      	movs	r1, #1
  40303e:	fbb3 f0f8 	udiv	r0, r3, r8
  403042:	0c22      	lsrs	r2, r4, #16
  403044:	fb08 3610 	mls	r6, r8, r0, r3
  403048:	ea42 4606 	orr.w	r6, r2, r6, lsl #16
  40304c:	fb0c f300 	mul.w	r3, ip, r0
  403050:	42b3      	cmp	r3, r6
  403052:	d907      	bls.n	403064 <__udivmoddi4+0x134>
  403054:	19f6      	adds	r6, r6, r7
  403056:	f100 32ff 	add.w	r2, r0, #4294967295
  40305a:	d202      	bcs.n	403062 <__udivmoddi4+0x132>
  40305c:	42b3      	cmp	r3, r6
  40305e:	f200 80ce 	bhi.w	4031fe <__udivmoddi4+0x2ce>
  403062:	4610      	mov	r0, r2
  403064:	1af6      	subs	r6, r6, r3
  403066:	b2a2      	uxth	r2, r4
  403068:	fbb6 f3f8 	udiv	r3, r6, r8
  40306c:	fb08 6613 	mls	r6, r8, r3, r6
  403070:	ea42 4406 	orr.w	r4, r2, r6, lsl #16
  403074:	fb0c fc03 	mul.w	ip, ip, r3
  403078:	45a4      	cmp	ip, r4
  40307a:	d907      	bls.n	40308c <__udivmoddi4+0x15c>
  40307c:	19e4      	adds	r4, r4, r7
  40307e:	f103 32ff 	add.w	r2, r3, #4294967295
  403082:	d202      	bcs.n	40308a <__udivmoddi4+0x15a>
  403084:	45a4      	cmp	ip, r4
  403086:	f200 80b5 	bhi.w	4031f4 <__udivmoddi4+0x2c4>
  40308a:	4613      	mov	r3, r2
  40308c:	ebcc 0404 	rsb	r4, ip, r4
  403090:	ea43 4000 	orr.w	r0, r3, r0, lsl #16
  403094:	e79c      	b.n	402fd0 <__udivmoddi4+0xa0>
  403096:	4629      	mov	r1, r5
  403098:	4628      	mov	r0, r5
  40309a:	e8bd 87f0 	ldmia.w	sp!, {r4, r5, r6, r7, r8, r9, sl, pc}
  40309e:	f1ce 0120 	rsb	r1, lr, #32
  4030a2:	fa06 f30e 	lsl.w	r3, r6, lr
  4030a6:	fa07 f70e 	lsl.w	r7, r7, lr
  4030aa:	fa20 f901 	lsr.w	r9, r0, r1
  4030ae:	ea4f 4817 	mov.w	r8, r7, lsr #16
  4030b2:	40ce      	lsrs	r6, r1
  4030b4:	ea49 0903 	orr.w	r9, r9, r3
  4030b8:	fbb6 faf8 	udiv	sl, r6, r8
  4030bc:	ea4f 4419 	mov.w	r4, r9, lsr #16
  4030c0:	fb08 661a 	mls	r6, r8, sl, r6
  4030c4:	fa1f fc87 	uxth.w	ip, r7
  4030c8:	ea44 4306 	orr.w	r3, r4, r6, lsl #16
  4030cc:	fb0a f20c 	mul.w	r2, sl, ip
  4030d0:	429a      	cmp	r2, r3
  4030d2:	fa00 f40e 	lsl.w	r4, r0, lr
  4030d6:	d90a      	bls.n	4030ee <__udivmoddi4+0x1be>
  4030d8:	19db      	adds	r3, r3, r7
  4030da:	f10a 31ff 	add.w	r1, sl, #4294967295
  4030de:	f080 8087 	bcs.w	4031f0 <__udivmoddi4+0x2c0>
  4030e2:	429a      	cmp	r2, r3
  4030e4:	f240 8084 	bls.w	4031f0 <__udivmoddi4+0x2c0>
  4030e8:	f1aa 0a02 	sub.w	sl, sl, #2
  4030ec:	443b      	add	r3, r7
  4030ee:	1a9b      	subs	r3, r3, r2
  4030f0:	fa1f f989 	uxth.w	r9, r9
  4030f4:	fbb3 f1f8 	udiv	r1, r3, r8
  4030f8:	fb08 3311 	mls	r3, r8, r1, r3
  4030fc:	ea49 4303 	orr.w	r3, r9, r3, lsl #16
  403100:	fb01 f60c 	mul.w	r6, r1, ip
  403104:	429e      	cmp	r6, r3
  403106:	d907      	bls.n	403118 <__udivmoddi4+0x1e8>
  403108:	19db      	adds	r3, r3, r7
  40310a:	f101 32ff 	add.w	r2, r1, #4294967295
  40310e:	d26b      	bcs.n	4031e8 <__udivmoddi4+0x2b8>
  403110:	429e      	cmp	r6, r3
  403112:	d969      	bls.n	4031e8 <__udivmoddi4+0x2b8>
  403114:	3902      	subs	r1, #2
  403116:	443b      	add	r3, r7
  403118:	1b9b      	subs	r3, r3, r6
  40311a:	ea41 410a 	orr.w	r1, r1, sl, lsl #16
  40311e:	e78e      	b.n	40303e <__udivmoddi4+0x10e>
  403120:	f1c1 0e20 	rsb	lr, r1, #32
  403124:	fa22 f40e 	lsr.w	r4, r2, lr
  403128:	408b      	lsls	r3, r1
  40312a:	4323      	orrs	r3, r4
  40312c:	fa20 f70e 	lsr.w	r7, r0, lr
  403130:	fa06 f401 	lsl.w	r4, r6, r1
  403134:	ea4f 4c13 	mov.w	ip, r3, lsr #16
  403138:	fa26 f60e 	lsr.w	r6, r6, lr
  40313c:	433c      	orrs	r4, r7
  40313e:	fbb6 f9fc 	udiv	r9, r6, ip
  403142:	0c27      	lsrs	r7, r4, #16
  403144:	fb0c 6619 	mls	r6, ip, r9, r6
  403148:	fa1f f883 	uxth.w	r8, r3
  40314c:	ea47 4606 	orr.w	r6, r7, r6, lsl #16
  403150:	fb09 f708 	mul.w	r7, r9, r8
  403154:	42b7      	cmp	r7, r6
  403156:	fa02 f201 	lsl.w	r2, r2, r1
  40315a:	fa00 fa01 	lsl.w	sl, r0, r1
  40315e:	d908      	bls.n	403172 <__udivmoddi4+0x242>
  403160:	18f6      	adds	r6, r6, r3
  403162:	f109 30ff 	add.w	r0, r9, #4294967295
  403166:	d241      	bcs.n	4031ec <__udivmoddi4+0x2bc>
  403168:	42b7      	cmp	r7, r6
  40316a:	d93f      	bls.n	4031ec <__udivmoddi4+0x2bc>
  40316c:	f1a9 0902 	sub.w	r9, r9, #2
  403170:	441e      	add	r6, r3
  403172:	1bf6      	subs	r6, r6, r7
  403174:	b2a0      	uxth	r0, r4
  403176:	fbb6 f4fc 	udiv	r4, r6, ip
  40317a:	fb0c 6614 	mls	r6, ip, r4, r6
  40317e:	ea40 4706 	orr.w	r7, r0, r6, lsl #16
  403182:	fb04 f808 	mul.w	r8, r4, r8
  403186:	45b8      	cmp	r8, r7
  403188:	d907      	bls.n	40319a <__udivmoddi4+0x26a>
  40318a:	18ff      	adds	r7, r7, r3
  40318c:	f104 30ff 	add.w	r0, r4, #4294967295
  403190:	d228      	bcs.n	4031e4 <__udivmoddi4+0x2b4>
  403192:	45b8      	cmp	r8, r7
  403194:	d926      	bls.n	4031e4 <__udivmoddi4+0x2b4>
  403196:	3c02      	subs	r4, #2
  403198:	441f      	add	r7, r3
  40319a:	ea44 4009 	orr.w	r0, r4, r9, lsl #16
  40319e:	ebc8 0707 	rsb	r7, r8, r7
  4031a2:	fba0 8902 	umull	r8, r9, r0, r2
  4031a6:	454f      	cmp	r7, r9
  4031a8:	4644      	mov	r4, r8
  4031aa:	464e      	mov	r6, r9
  4031ac:	d314      	bcc.n	4031d8 <__udivmoddi4+0x2a8>
  4031ae:	d029      	beq.n	403204 <__udivmoddi4+0x2d4>
  4031b0:	b365      	cbz	r5, 40320c <__udivmoddi4+0x2dc>
  4031b2:	ebba 0304 	subs.w	r3, sl, r4
  4031b6:	eb67 0706 	sbc.w	r7, r7, r6
  4031ba:	fa07 fe0e 	lsl.w	lr, r7, lr
  4031be:	40cb      	lsrs	r3, r1
  4031c0:	40cf      	lsrs	r7, r1
  4031c2:	ea4e 0303 	orr.w	r3, lr, r3
  4031c6:	e885 0088 	stmia.w	r5, {r3, r7}
  4031ca:	2100      	movs	r1, #0
  4031cc:	e8bd 87f0 	ldmia.w	sp!, {r4, r5, r6, r7, r8, r9, sl, pc}
  4031d0:	4613      	mov	r3, r2
  4031d2:	e6f8      	b.n	402fc6 <__udivmoddi4+0x96>
  4031d4:	4610      	mov	r0, r2
  4031d6:	e6e0      	b.n	402f9a <__udivmoddi4+0x6a>
  4031d8:	ebb8 0402 	subs.w	r4, r8, r2
  4031dc:	eb69 0603 	sbc.w	r6, r9, r3
  4031e0:	3801      	subs	r0, #1
  4031e2:	e7e5      	b.n	4031b0 <__udivmoddi4+0x280>
  4031e4:	4604      	mov	r4, r0
  4031e6:	e7d8      	b.n	40319a <__udivmoddi4+0x26a>
  4031e8:	4611      	mov	r1, r2
  4031ea:	e795      	b.n	403118 <__udivmoddi4+0x1e8>
  4031ec:	4681      	mov	r9, r0
  4031ee:	e7c0      	b.n	403172 <__udivmoddi4+0x242>
  4031f0:	468a      	mov	sl, r1
  4031f2:	e77c      	b.n	4030ee <__udivmoddi4+0x1be>
  4031f4:	3b02      	subs	r3, #2
  4031f6:	443c      	add	r4, r7
  4031f8:	e748      	b.n	40308c <__udivmoddi4+0x15c>
  4031fa:	4608      	mov	r0, r1
  4031fc:	e70a      	b.n	403014 <__udivmoddi4+0xe4>
  4031fe:	3802      	subs	r0, #2
  403200:	443e      	add	r6, r7
  403202:	e72f      	b.n	403064 <__udivmoddi4+0x134>
  403204:	45c2      	cmp	sl, r8
  403206:	d3e7      	bcc.n	4031d8 <__udivmoddi4+0x2a8>
  403208:	463e      	mov	r6, r7
  40320a:	e7d1      	b.n	4031b0 <__udivmoddi4+0x280>
  40320c:	4629      	mov	r1, r5
  40320e:	e8bd 87f0 	ldmia.w	sp!, {r4, r5, r6, r7, r8, r9, sl, pc}
  403212:	bf00      	nop

00403214 <__aeabi_idiv0>:
  403214:	4770      	bx	lr
  403216:	bf00      	nop

00403218 <__libc_init_array>:
  403218:	b570      	push	{r4, r5, r6, lr}
  40321a:	4e0f      	ldr	r6, [pc, #60]	; (403258 <__libc_init_array+0x40>)
  40321c:	4d0f      	ldr	r5, [pc, #60]	; (40325c <__libc_init_array+0x44>)
  40321e:	1b76      	subs	r6, r6, r5
  403220:	10b6      	asrs	r6, r6, #2
  403222:	bf18      	it	ne
  403224:	2400      	movne	r4, #0
  403226:	d005      	beq.n	403234 <__libc_init_array+0x1c>
  403228:	3401      	adds	r4, #1
  40322a:	f855 3b04 	ldr.w	r3, [r5], #4
  40322e:	4798      	blx	r3
  403230:	42a6      	cmp	r6, r4
  403232:	d1f9      	bne.n	403228 <__libc_init_array+0x10>
  403234:	4e0a      	ldr	r6, [pc, #40]	; (403260 <__libc_init_array+0x48>)
  403236:	4d0b      	ldr	r5, [pc, #44]	; (403264 <__libc_init_array+0x4c>)
  403238:	1b76      	subs	r6, r6, r5
  40323a:	f000 f89b 	bl	403374 <_init>
  40323e:	10b6      	asrs	r6, r6, #2
  403240:	bf18      	it	ne
  403242:	2400      	movne	r4, #0
  403244:	d006      	beq.n	403254 <__libc_init_array+0x3c>
  403246:	3401      	adds	r4, #1
  403248:	f855 3b04 	ldr.w	r3, [r5], #4
  40324c:	4798      	blx	r3
  40324e:	42a6      	cmp	r6, r4
  403250:	d1f9      	bne.n	403246 <__libc_init_array+0x2e>
  403252:	bd70      	pop	{r4, r5, r6, pc}
  403254:	bd70      	pop	{r4, r5, r6, pc}
  403256:	bf00      	nop
  403258:	00403380 	.word	0x00403380
  40325c:	00403380 	.word	0x00403380
  403260:	00403388 	.word	0x00403388
  403264:	00403380 	.word	0x00403380

00403268 <register_fini>:
  403268:	4b02      	ldr	r3, [pc, #8]	; (403274 <register_fini+0xc>)
  40326a:	b113      	cbz	r3, 403272 <register_fini+0xa>
  40326c:	4802      	ldr	r0, [pc, #8]	; (403278 <register_fini+0x10>)
  40326e:	f000 b805 	b.w	40327c <atexit>
  403272:	4770      	bx	lr
  403274:	00000000 	.word	0x00000000
  403278:	00403289 	.word	0x00403289

0040327c <atexit>:
  40327c:	2300      	movs	r3, #0
  40327e:	4601      	mov	r1, r0
  403280:	461a      	mov	r2, r3
  403282:	4618      	mov	r0, r3
  403284:	f000 b814 	b.w	4032b0 <__register_exitproc>

00403288 <__libc_fini_array>:
  403288:	b538      	push	{r3, r4, r5, lr}
  40328a:	4d07      	ldr	r5, [pc, #28]	; (4032a8 <__libc_fini_array+0x20>)
  40328c:	4c07      	ldr	r4, [pc, #28]	; (4032ac <__libc_fini_array+0x24>)
  40328e:	1b2c      	subs	r4, r5, r4
  403290:	10a4      	asrs	r4, r4, #2
  403292:	d005      	beq.n	4032a0 <__libc_fini_array+0x18>
  403294:	3c01      	subs	r4, #1
  403296:	f855 3d04 	ldr.w	r3, [r5, #-4]!
  40329a:	4798      	blx	r3
  40329c:	2c00      	cmp	r4, #0
  40329e:	d1f9      	bne.n	403294 <__libc_fini_array+0xc>
  4032a0:	e8bd 4038 	ldmia.w	sp!, {r3, r4, r5, lr}
  4032a4:	f000 b870 	b.w	403388 <_fini>
  4032a8:	00403398 	.word	0x00403398
  4032ac:	00403394 	.word	0x00403394

004032b0 <__register_exitproc>:
  4032b0:	e92d 47f0 	stmdb	sp!, {r4, r5, r6, r7, r8, r9, sl, lr}
  4032b4:	4c25      	ldr	r4, [pc, #148]	; (40334c <__register_exitproc+0x9c>)
  4032b6:	6825      	ldr	r5, [r4, #0]
  4032b8:	f8d5 4148 	ldr.w	r4, [r5, #328]	; 0x148
  4032bc:	4606      	mov	r6, r0
  4032be:	4688      	mov	r8, r1
  4032c0:	4692      	mov	sl, r2
  4032c2:	4699      	mov	r9, r3
  4032c4:	b3c4      	cbz	r4, 403338 <__register_exitproc+0x88>
  4032c6:	6860      	ldr	r0, [r4, #4]
  4032c8:	281f      	cmp	r0, #31
  4032ca:	dc17      	bgt.n	4032fc <__register_exitproc+0x4c>
  4032cc:	1c43      	adds	r3, r0, #1
  4032ce:	b176      	cbz	r6, 4032ee <__register_exitproc+0x3e>
  4032d0:	eb04 0580 	add.w	r5, r4, r0, lsl #2
  4032d4:	2201      	movs	r2, #1
  4032d6:	f8c5 a088 	str.w	sl, [r5, #136]	; 0x88
  4032da:	f8d4 1188 	ldr.w	r1, [r4, #392]	; 0x188
  4032de:	4082      	lsls	r2, r0
  4032e0:	4311      	orrs	r1, r2
  4032e2:	2e02      	cmp	r6, #2
  4032e4:	f8c4 1188 	str.w	r1, [r4, #392]	; 0x188
  4032e8:	f8c5 9108 	str.w	r9, [r5, #264]	; 0x108
  4032ec:	d01e      	beq.n	40332c <__register_exitproc+0x7c>
  4032ee:	3002      	adds	r0, #2
  4032f0:	6063      	str	r3, [r4, #4]
  4032f2:	f844 8020 	str.w	r8, [r4, r0, lsl #2]
  4032f6:	2000      	movs	r0, #0
  4032f8:	e8bd 87f0 	ldmia.w	sp!, {r4, r5, r6, r7, r8, r9, sl, pc}
  4032fc:	4b14      	ldr	r3, [pc, #80]	; (403350 <__register_exitproc+0xa0>)
  4032fe:	b303      	cbz	r3, 403342 <__register_exitproc+0x92>
  403300:	f44f 70c8 	mov.w	r0, #400	; 0x190
  403304:	f3af 8000 	nop.w
  403308:	4604      	mov	r4, r0
  40330a:	b1d0      	cbz	r0, 403342 <__register_exitproc+0x92>
  40330c:	f8d5 3148 	ldr.w	r3, [r5, #328]	; 0x148
  403310:	2700      	movs	r7, #0
  403312:	e880 0088 	stmia.w	r0, {r3, r7}
  403316:	f8c5 4148 	str.w	r4, [r5, #328]	; 0x148
  40331a:	4638      	mov	r0, r7
  40331c:	2301      	movs	r3, #1
  40331e:	f8c4 7188 	str.w	r7, [r4, #392]	; 0x188
  403322:	f8c4 718c 	str.w	r7, [r4, #396]	; 0x18c
  403326:	2e00      	cmp	r6, #0
  403328:	d0e1      	beq.n	4032ee <__register_exitproc+0x3e>
  40332a:	e7d1      	b.n	4032d0 <__register_exitproc+0x20>
  40332c:	f8d4 118c 	ldr.w	r1, [r4, #396]	; 0x18c
  403330:	430a      	orrs	r2, r1
  403332:	f8c4 218c 	str.w	r2, [r4, #396]	; 0x18c
  403336:	e7da      	b.n	4032ee <__register_exitproc+0x3e>
  403338:	f505 74a6 	add.w	r4, r5, #332	; 0x14c
  40333c:	f8c5 4148 	str.w	r4, [r5, #328]	; 0x148
  403340:	e7c1      	b.n	4032c6 <__register_exitproc+0x16>
  403342:	f04f 30ff 	mov.w	r0, #4294967295
  403346:	e8bd 87f0 	ldmia.w	sp!, {r4, r5, r6, r7, r8, r9, sl, pc}
  40334a:	bf00      	nop
  40334c:	00403370 	.word	0x00403370
  403350:	00000000 	.word	0x00000000
  403354:	00002580 	.word	0x00002580
  403358:	000000c0 	.word	0x000000c0
  40335c:	00000800 	.word	0x00000800
	...
  40336c:	00000043 	.word	0x00000043

00403370 <_global_impure_ptr>:
  403370:	20000010                                ... 

00403374 <_init>:
  403374:	b5f8      	push	{r3, r4, r5, r6, r7, lr}
  403376:	bf00      	nop
  403378:	bcf8      	pop	{r3, r4, r5, r6, r7}
  40337a:	bc08      	pop	{r3}
  40337c:	469e      	mov	lr, r3
  40337e:	4770      	bx	lr

00403380 <__init_array_start>:
  403380:	00403269 	.word	0x00403269

00403384 <__frame_dummy_init_array_entry>:
  403384:	004000f1                                ..@.

00403388 <_fini>:
  403388:	b5f8      	push	{r3, r4, r5, r6, r7, lr}
  40338a:	bf00      	nop
  40338c:	bcf8      	pop	{r3, r4, r5, r6, r7}
  40338e:	bc08      	pop	{r3}
  403390:	469e      	mov	lr, r3
  403392:	4770      	bx	lr

00403394 <__fini_array_start>:
  403394:	004000cd 	.word	0x004000cd

Disassembly of section .relocate:

20000000 <portable_delay_cycles>:
RAMFUNC
void portable_delay_cycles(unsigned long n)
{
	UNUSED(n);

	__asm (
20000000:	f3bf 8f5f 	dmb	sy
20000004:	3801      	subs	r0, #1
20000006:	d1fb      	bne.n	20000000 <portable_delay_cycles>
20000008:	4770      	bx	lr
2000000a:	bf00      	nop

2000000c <SystemCoreClock>:
2000000c:	0900 003d                                   ..=.

20000010 <impure_data>:
20000010:	0000 0000 02fc 2000 0364 2000 03cc 2000     ....... d.. ... 
	...
20000044:	336c 0040 0000 0000 0000 0000 0000 0000     l3@.............
	...
200000b8:	0001 0000 0000 0000 330e abcd 1234 e66d     .........3..4.m.
200000c8:	deec 0005 000b 0000 0000 0000 0000 0000     ................
	...
